(dp1
S'exclude_non_protein'
p2
I00
sS'use_cache'
p3
I01
sS'exclude_hydrogens'
p4
I00
sS'exclude_water'
p5
I01
sS'bonds'
p6
I01
sS'quiet'
p7
I00
sS'delete_cache'
p8
I01
sS'dihedrals'
p9
I01
sS'parallelitys'
p10
I00
sS'only_hydrogens'
p11
I00
sS'ignore_cache'
p12
I00
sS'angles'
p13
I01
sS'planes'
p14
I00
sS'only_water'
p15
I00
sS'filename'
p16
S'3g3v.updated_refine_001.pdb.geo'
p17
sS'chirals'
p18
I01
sS'nonbonds'
p19
I00
s.