ccopy_reg
_reconstructor
p1
(celbow.chemistry.MoleculeClass
MoleculeClass
p2
c__builtin__
list
p3
(lp4
(ielbow.chemistry.AtomClass
AtomClass
p5
(dp6
S'input_xyz'
p7
(ielbow.chemistry.xyzClass
xyzClass
p8
(dp9
S'dotProduct'
p10
I1
sS'angleScale'
p11
F57.295779513082323
sS'y'
F-0.56999999999999995
sS'x'
F2.2589999999999999
sS'xyz'
p12
(F2.2589999999999999
F-0.56999999999999995
F-4.5640000000000001
tp13
sS'z'
F-4.5640000000000001
sbsS'starting_xyz'
p14
(ielbow.chemistry.xyzClass
xyzClass
p15
(dp16
g10
I1
sg11
F57.295779513082323
sS'y'
F0
sS'x'
F0
sg12
(F0
F0
F0
tp17
sS'z'
F0
sbsg12
(ielbow.chemistry.xyzClass
xyzClass
p18
(dp19
g10
I1
sg11
F57.295779513082323
sS'y'
F-0.0092215532627108361
sS'x'
F0.022867352195442728
sg12
(F0.022867352195442728
F-0.0092215532627108361
F0.015708787467153901
tp20
sS'z'
F0.015708787467153901
sbsS'number'
p21
I7
sS'ring_id'
p22
(lp23
sS'alt_name'
p24
S'N1'
p25
sS'pi_electrons'
p26
(I1
I2
tp27
sS'occupancy'
p28
F1
sS'charge'
p29
I1
sS'input_index'
p30
I0
sS'unique_residue_key'
p31
S'TBA:1:A:'
p32
sS'unique_residue_key_altloc'
p33
S'TBA:1:A:???'
p34
sS'record_name'
p35
S'HETATM'
p36
sS'cif_index'
p37
I0
sS'original_serial'
p38
S'    1'
p39
sS'input_name'
p40
S' N1 '
p41
sS'cif_energy_type'
p42
S'NT'
p43
sS'beginning_xyz'
p44
g8
sS'name'
p45
g41
sS'resSeq'
p46
I1
sS'original_index'
p47
I1
sS'iCode'
p48
S' '
sS'x'
F0.022867352195442728
sS'z'
F0.015708787467153901
sS'rotation_index'
p49
I0
sS'tempFactor'
p50
F20
sS'tmp_id'
p51
I139984369570592
sS'sign'
p52
S''
sS'resName'
p53
S'TBA'
p54
sS'serial'
p55
S'    1'
p56
sS'id'
p57
I139984369570592
sS'bonded'
p58
(lp59
(ielbow.chemistry.AtomClass
AtomClass
p60
(dp61
g7
(ielbow.chemistry.xyzClass
xyzClass
p62
(dp63
g10
I1
sg11
F57.295779513082323
sS'y'
F0.27800000000000002
sS'x'
F1.1739999999999999
sg12
(F1.1739999999999999
F0.27800000000000002
F-4.0129999999999999
tp64
sS'z'
F-4.0129999999999999
sbsg14
(ielbow.chemistry.xyzClass
xyzClass
p65
(dp66
g10
I1
sg11
F57.295779513082323
sS'y'
F0
sS'x'
F1.4597301834653871
sg12
(F1.4597301834653871
F0
F0
tp67
sS'z'
F0
sbsg12
(ielbow.chemistry.xyzClass
xyzClass
p68
(dp69
g10
I1
sg11
F57.295779513082323
sS'y'
F0.059325608377260079
sS'x'
F1.4777425106783626
sg12
(F1.4777425106783626
F0.059325608377260079
F-0.0043428482299994933
tp70
sS'z'
F-0.0043428482299994933
sbsg21
I6
sg22
(lp71
sg24
S'C11'
p72
sg26
(I1
tp73
sg28
F1
sg29
I0
sg30
I1
sg31
S'TBA:1:A:'
p74
sg33
S'TBA:1:A:???'
p75
sg35
g36
sg37
I1
sg38
S'    2'
p76
sg40
S' C11'
p77
sg42
S'CH2'
p78
sg44
g62
sg45
g77
sg46
I1
sg47
I2
sg48
S' '
sS'x'
F1.4777425106783626
sS'z'
F-0.0043428482299994933
sg49
I1
sg50
F20
sg51
I139984369570880
sg52
S''
sg53
S'TBA'
p79
sg55
S'    2'
p80
sg57
I139984369570880
sg58
(lp81
g5
a(ielbow.chemistry.AtomClass
AtomClass
p82
(dp83
g7
(ielbow.chemistry.xyzClass
xyzClass
p84
(dp85
g10
I1
sg11
F57.295779513082323
sS'y'
F1.0569999999999999
sS'x'
F1.7070000000000001
sg12
(F1.7070000000000001
F1.0569999999999999
F-2.8199999999999998
tp86
sS'z'
F-2.8199999999999998
sbsg14
(ielbow.chemistry.xyzClass
xyzClass
p87
(dp88
g10
I1
sg11
F57.295779513082323
sS'y'
F0
sS'x'
F1.9696545342120606
sg12
(F1.9696545342120606
F0
F1.4406985757486095
tp89
sS'z'
F1.4406985757486095
sbsg12
(ielbow.chemistry.xyzClass
xyzClass
p90
(dp91
g10
I1
sg11
F57.295779513082323
sS'y'
F0.33485238376684789
sS'x'
F1.9951392489539659
sg12
(F1.9951392489539659
F0.33485238376684789
F1.4084150946974161
tp92
sS'z'
F1.4084150946974161
sbsg21
I6
sg22
(lp93
sg24
S'C12'
p94
sg26
g73
sg28
F1
sg29
I0
sg30
I2
sg31
S'TBA:1:A:'
p95
sg33
S'TBA:1:A:???'
p96
sg35
g36
sg37
I2
sg38
S'    3'
p97
sg40
S' C12'
p98
sg42
g78
sg44
g84
sg45
g98
sg46
I1
sg47
I3
sg48
S' '
sS'x'
F1.9951392489539659
sS'z'
F1.4084150946974161
sg49
I2
sg50
F20
sg51
I139984369570520
sg52
S''
sg53
S'TBA'
p99
sg55
S'    3'
p100
sg57
I139984369570520
sg58
(lp101
g60
a(ielbow.chemistry.AtomClass
AtomClass
p102
(dp103
g7
(ielbow.chemistry.xyzClass
xyzClass
p104
(dp105
g10
I1
sg11
F57.295779513082323
sS'y'
F1.913
sS'x'
F0.60899999999999999
sg12
(F0.60899999999999999
F1.913
F-2.1890000000000001
tp106
sS'z'
F-2.1890000000000001
sbsg14
(ielbow.chemistry.xyzClass
xyzClass
p107
(dp108
g10
I1
sg11
F57.295779513082323
sS'y'
F0.037022599979476628
sS'x'
F3.4994526251713411
sg12
(F3.4994526251713411
F0.037022599979476628
F1.439761605210345
tp109
sS'z'
F1.439761605210345
sbsg12
(ielbow.chemistry.xyzClass
xyzClass
p110
(dp111
g10
I1
sg11
F57.295779513082323
sS'y'
F0.13606666779830978
sS'x'
F3.5108059001545429
sg12
(F3.5108059001545429
F0.13606666779830978
F1.4436968392322329
tp112
sS'z'
F1.4436968392322329
sbsg21
I6
sg22
(lp113
sg24
S'C13'
p114
sg26
g73
sg28
F1
sg29
I0
sg30
I9
sg31
S'TBA:1:A:'
p115
sg33
S'TBA:1:A:???'
p116
sg35
g36
sg37
I9
sg38
S'   10'
p117
sg40
S' C13'
p118
sg42
g78
sg44
g104
sg45
g118
sg46
I1
sg47
I10
sg48
S' '
sS'x'
F3.5108059001545429
sS'z'
F1.4436968392322329
sg49
I9
sg50
F20
sg51
I139984369798608
sg52
S''
sg53
S'TBA'
p119
sg55
S'   10'
p120
sg57
I139984369798608
sg58
(lp121
g82
a(ielbow.chemistry.AtomClass
AtomClass
p122
(dp123
g7
(ielbow.chemistry.xyzClass
xyzClass
p124
(dp125
g10
I1
sg11
F57.295779513082323
sS'y'
F2.669
sS'x'
F1.121
sg12
(F1.121
F2.669
F-0.97399999999999998
tp126
sS'z'
F-0.97399999999999998
sbsg14
(ielbow.chemistry.xyzClass
xyzClass
p127
(dp128
g10
I1
sg11
F57.295779513082323
sS'y'
F0.18841545604122281
sS'x'
F4.0057803141116235
sg12
(F4.0057803141116235
F0.18841545604122281
F2.8716948152079063
tp129
sS'z'
F2.8716948152079063
sbsg12
(ielbow.chemistry.xyzClass
xyzClass
p130
(dp131
g10
I1
sg11
F57.295779513082323
sS'y'
F0.22686744199579106
sS'x'
F4.0026886811927733
sg12
(F4.0026886811927733
F0.22686744199579106
F2.886109455697095
tp132
sS'z'
F2.886109455697095
sbsg21
I6
sg22
(lp133
sg24
S'C14'
p134
sg26
g73
sg28
F1
sg29
I0
sg30
I10
sg31
S'TBA:1:A:'
p135
sg33
S'TBA:1:A:???'
p136
sg35
g36
sg37
I10
sg38
S'   11'
p137
sg40
S' C14'
p138
sg42
S'CH3'
p139
sg44
g124
sg45
g138
sg46
I1
sg47
I11
sg48
S' '
sS'x'
F4.0026886811927733
sS'z'
F2.886109455697095
sg49
I10
sg50
F20
sg51
I139984369799112
sg52
S''
sg53
S'TBA'
p140
sg55
S'   11'
p141
sg57
I139984369799112
sg58
(lp142
g102
a(ielbow.chemistry.AtomClass
AtomClass
p143
(dp144
g7
(ielbow.chemistry.xyzClass
xyzClass
p145
(dp146
g10
I1
sg11
F57.295779513082323
sS'y'
F3.339
sS'x'
F1.9430000000000001
sg12
(F1.9430000000000001
F3.339
F-1.246
tp147
sS'z'
F-1.246
sbsg14
(ielbow.chemistry.xyzClass
xyzClass
p148
(dp149
g10
I1
sg11
F57.295779513082323
sS'y'
F0.17885842774249952
sS'x'
F5.0890433293911386
sg12
(F5.0890433293911386
F0.17885842774249952
F2.8745744711995256
tp150
sS'z'
F2.8745744711995256
sbsg12
(ielbow.chemistry.xyzClass
xyzClass
p151
(dp152
g10
I0
sg11
F57.295779513082323
sS'y'
F0.16379684401691544
sS'x'
F5.0873458561875795
sg12
(F5.0873458561875795
F0.16379684401691544
F2.9035392463461802
tp153
sS'z'
F2.9035392463461802
sbsg21
I1
sg22
(lp154
sg24
S'1H14'
p155
sg26
Nsg28
F1
sg29
I0
sg30
I35
sg31
S'TBA:1:A:'
p156
sg33
S'TBA:1:A:???'
p157
sg35
g36
sg37
I35
sg38
S'   36'
p158
sg40
S'H141'
p159
sg42
S'HCH3'
p160
sg44
g145
sg45
g159
sg46
I1
sg47
I36
sg48
S' '
sS'x'
F5.0873458561875795
sS'z'
F2.9035392463461802
sg49
I35
sg50
F20
sg51
I139984369676728
sg52
S''
sg53
S'TBA'
p161
sg55
S'   36'
p162
sg57
I139984369676728
sg58
(lp163
g122
asS'index'
p164
I36
sS'pre_pdb_write_index'
p165
NsS'stored_xyz'
p166
g145
sS'ring_id_backup'
p167
(lp168
sS'chainID'
p169
S'A'
sS'cif_name'
p170
g159
sS'symbol'
p171
S'H'
sS'segID'
p172
S'A'
sS'old_xyz'
p173
g151
sS'randomised'
p174
I01
sS'chiral'
p175
S''
sS'element'
p176
S'H'
sS'mass'
p177
F1.0079
sS'y'
F0.16379684401691544
sS'hcount'
p178
I0
sba(ielbow.chemistry.AtomClass
AtomClass
p179
(dp180
g7
(ielbow.chemistry.xyzClass
xyzClass
p181
(dp182
g10
I1
sg11
F57.295779513082323
sS'y'
F1.978
sS'x'
F1.4810000000000001
sg12
(F1.4810000000000001
F1.978
F-0.20399999999999999
tp183
sS'z'
F-0.20399999999999999
sbsg14
(ielbow.chemistry.xyzClass
xyzClass
p184
(dp185
g10
I1
sg11
F57.295779513082323
sS'y'
F-0.63235107958458037
sS'x'
F3.6358726053714219
sg12
(F3.6358726053714219
F-0.63235107958458037
F3.4742468631609369
tp186
sS'z'
F3.4742468631609369
sbsg12
(ielbow.chemistry.xyzClass
xyzClass
p187
(dp188
g10
I0
sg11
F57.295779513082323
sS'y'
F-0.59155517936464719
sS'x'
F3.583095642317295
sg12
(F3.583095642317295
F-0.59155517936464719
F3.4639087250126193
tp189
sS'z'
F3.4639087250126193
sbsg21
I1
sg22
(lp190
sg24
S'2H14'
p191
sg26
Nsg28
F1
sg29
I0
sg30
I36
sg31
S'TBA:1:A:'
p192
sg33
S'TBA:1:A:???'
p193
sg35
g36
sg37
I36
sg38
S'   37'
p194
sg40
S'H142'
p195
sg42
g160
sg44
g181
sg45
g195
sg46
I1
sg47
I37
sg48
S' '
sS'x'
F3.583095642317295
sS'z'
F3.4639087250126193
sg49
I36
sg50
F20
sg51
I139984369676656
sg52
S''
sg53
S'TBA'
p196
sg55
S'   37'
p197
sg57
I139984369676656
sg58
(lp198
g122
asg164
I37
sg165
Nsg166
g181
sg167
(lp199
sg169
S'A'
sg170
g195
sg171
S'H'
sg172
S'A'
sg173
g187
sg174
I01
sg175
S''
sg176
S'H'
sg177
F1.0079
sS'y'
F-0.59155517936464719
sg178
I0
sba(ielbow.chemistry.AtomClass
AtomClass
p200
(dp201
g7
(ielbow.chemistry.xyzClass
xyzClass
p202
(dp203
g10
I1
sg11
F57.295779513082323
sS'y'
F3.274
sS'x'
F0.32000000000000001
sg12
(F0.32000000000000001
F3.274
F-0.53900000000000003
tp204
sS'z'
F-0.53900000000000003
sbsg14
(ielbow.chemistry.xyzClass
xyzClass
p205
(dp206
g10
I1
sg11
F57.295779513082323
sS'y'
F1.1261979292459854
sS'x'
F3.6518965390500413
sg12
(F3.6518965390500413
F1.1261979292459854
F3.2826555142767133
tp207
sS'z'
F3.2826555142767133
sbsg12
(ielbow.chemistry.xyzClass
xyzClass
p208
(dp209
g10
I0
sg11
F57.295779513082323
sS'y'
F1.1726679844244707
sS'x'
F3.6881370249469518
sg12
(F3.6881370249469518
F1.1726679844244707
F3.3169089506777958
tp210
sS'z'
F3.3169089506777958
sbsg21
I1
sg22
(lp211
sg24
S'3H14'
p212
sg26
Nsg28
F1
sg29
I0
sg30
I37
sg31
S'TBA:1:A:'
p213
sg33
S'TBA:1:A:???'
p214
sg35
g36
sg37
I37
sg38
S'   38'
p215
sg40
S'H143'
p216
sg42
g160
sg44
g202
sg45
g216
sg46
I1
sg47
I38
sg48
S' '
sS'x'
F3.6881370249469518
sS'z'
F3.3169089506777958
sg49
I37
sg50
F20
sg51
I139984369677016
sg52
S''
sg53
S'TBA'
p217
sg55
S'   38'
p218
sg57
I139984369677016
sg58
(lp219
g122
asg164
I38
sg165
Nsg166
g202
sg167
(lp220
sg169
S'A'
sg170
g216
sg171
S'H'
sg172
S'A'
sg173
g208
sg174
I01
sg175
S''
sg176
S'H'
sg177
F1.0079
sS'y'
F1.1726679844244707
sg178
I0
sbasg164
I11
sg165
Nsg166
g124
sg167
(lp221
sg169
S'A'
sg170
g138
sg171
S'C'
sg172
S'A'
sg173
g130
sg174
I01
sg175
S''
sg176
S'C'
sg177
F12.010999999999999
sS'y'
F0.22686744199579106
sg178
I0
sba(ielbow.chemistry.AtomClass
AtomClass
p222
(dp223
g7
(ielbow.chemistry.xyzClass
xyzClass
p224
(dp225
g10
I1
sg11
F57.295779513082323
sS'y'
F1.2769999999999999
sS'x'
F-0.23200000000000001
sg12
(F-0.23200000000000001
F1.2769999999999999
F-1.889
tp226
sS'z'
F-1.889
sbsg14
(ielbow.chemistry.xyzClass
xyzClass
p227
(dp228
g10
I1
sg11
F57.295779513082323
sS'y'
F-0.88369755489088575
sS'x'
F3.8827093505229855
sg12
(F3.8827093505229855
F-0.88369755489088575
F1.0167402483390515
tp229
sS'z'
F1.0167402483390515
sbsg12
(ielbow.chemistry.xyzClass
xyzClass
p230
(dp231
g10
I0
sg11
F57.295779513082323
sS'y'
F-0.83924070755359814
sS'x'
F3.756942680040904
sg12
(F3.756942680040904
F-0.83924070755359814
F1.0386273979731366
tp232
sS'z'
F1.0386273979731366
sbsg21
I1
sg22
(lp233
sg24
S'1H13'
p234
sg26
Nsg28
F1
sg29
I0
sg30
I33
sg31
S'TBA:1:A:'
p235
sg33
S'TBA:1:A:???'
p236
sg35
g36
sg37
I33
sg38
S'   34'
p237
sg40
S'H131'
p238
sg42
S'HCH2'
p239
sg44
g224
sg45
g238
sg46
I1
sg47
I34
sg48
S' '
sS'x'
F3.756942680040904
sS'z'
F1.0386273979731366
sg49
I33
sg50
F20
sg51
I139984369577928
sg52
S''
sg53
S'TBA'
p240
sg55
S'   34'
p241
sg57
I139984369577928
sg58
(lp242
g102
asg164
I34
sg165
Nsg166
g224
sg167
(lp243
sg169
S'A'
sg170
g238
sg171
S'H'
sg172
S'A'
sg173
g230
sg174
I01
sg175
S''
sg176
S'H'
sg177
F1.0079
sS'y'
F-0.83924070755359814
sg178
I0
sba(ielbow.chemistry.AtomClass
AtomClass
p244
(dp245
g7
(ielbow.chemistry.xyzClass
xyzClass
p246
(dp247
g10
I1
sg11
F57.295779513082323
sS'y'
F2.6299999999999999
sS'x'
F0.22800000000000001
sg12
(F0.22800000000000001
F2.6299999999999999
F-2.9249999999999998
tp248
sS'z'
F-2.9249999999999998
sbsg14
(ielbow.chemistry.xyzClass
xyzClass
p249
(dp250
g10
I1
sg11
F57.295779513082323
sS'y'
F0.87649312517866873
sS'x'
F3.8400189890810754
sg12
(F3.8400189890810754
F0.87649312517866873
F0.84573956978060183
tp251
sS'z'
F0.84573956978060183
sbsg12
(ielbow.chemistry.xyzClass
xyzClass
p252
(dp253
g10
I0
sg11
F57.295779513082323
sS'y'
F0.90626826320703668
sS'x'
F3.9904699487993009
sg12
(F3.9904699487993009
F0.90626826320703668
F0.84885258105359596
tp254
sS'z'
F0.84885258105359596
sbsg21
I1
sg22
(lp255
sg24
S'2H13'
p256
sg26
Nsg28
F1
sg29
I0
sg30
I34
sg31
S'TBA:1:A:'
p257
sg33
S'TBA:1:A:???'
p258
sg35
g36
sg37
I34
sg38
S'   35'
p259
sg40
S'H132'
p260
sg42
g239
sg44
g246
sg45
g260
sg46
I1
sg47
I35
sg48
S' '
sS'x'
F3.9904699487993009
sS'z'
F0.84885258105359596
sg49
I34
sg50
F20
sg51
I139984369676440
sg52
S''
sg53
S'TBA'
p261
sg55
S'   35'
p262
sg57
I139984369676440
sg58
(lp263
g102
asg164
I35
sg165
Nsg166
g246
sg167
(lp264
sg169
S'A'
sg170
g260
sg171
S'H'
sg172
S'A'
sg173
g252
sg174
I01
sg175
S''
sg176
S'H'
sg177
F1.0079
sS'y'
F0.90626826320703668
sg178
I0
sbasg164
I10
sg165
Nsg166
g104
sg167
(lp265
sg169
S'A'
sg170
g118
sg171
S'C'
sg172
S'A'
sg173
g110
sg174
I01
sg175
S''
sg176
S'C'
sg177
F12.010999999999999
sS'y'
F0.13606666779830978
sg178
I0
sba(ielbow.chemistry.AtomClass
AtomClass
p266
(dp267
g7
(ielbow.chemistry.xyzClass
xyzClass
p268
(dp269
g10
I1
sg11
F57.295779513082323
sS'y'
F1.7
sS'x'
F2.5379999999999998
sg12
(F2.5379999999999998
F1.7
F-3.137
tp270
sS'z'
F-3.137
sbsg14
(ielbow.chemistry.xyzClass
xyzClass
p271
(dp272
g10
I1
sg11
F57.295779513082323
sS'y'
F0.87113171599534356
sS'x'
F1.5876746782410862
sg12
(F1.5876746782410862
F0.87113171599534356
F1.9591378802967909
tp273
sS'z'
F1.9591378802967909
sbsg12
(ielbow.chemistry.xyzClass
xyzClass
p274
(dp275
g10
I0
sg11
F57.295779513082323
sS'y'
F1.3554847015137836
sS'x'
F1.7578646256901542
sg12
(F1.7578646256901542
F1.3554847015137836
F1.6876481625606332
tp276
sS'z'
F1.6876481625606332
sbsg21
I1
sg22
(lp277
sg24
S'1H12'
p278
sg26
Nsg28
F1
sg29
I0
sg30
I19
sg31
S'TBA:1:A:'
p279
sg33
S'TBA:1:A:???'
p280
sg35
g36
sg37
I19
sg38
S'   20'
p281
sg40
S'H121'
p282
sg42
g239
sg44
g268
sg45
g282
sg46
I1
sg47
I20
sg48
S' '
sS'x'
F1.7578646256901542
sS'z'
F1.6876481625606332
sg49
I19
sg50
F20
sg51
I139984369796880
sg52
S''
sg53
S'TBA'
p283
sg55
S'   20'
p284
sg57
I139984369796880
sg58
(lp285
g82
asg164
I20
sg165
Nsg166
g268
sg167
(lp286
sg169
S'A'
sg170
g282
sg171
S'H'
sg172
S'A'
sg173
g274
sg174
I01
sg175
S''
sg176
S'H'
sg177
F1.0079
sS'y'
F1.3554847015137836
sg178
I0
sba(ielbow.chemistry.AtomClass
AtomClass
p287
(dp288
g7
(ielbow.chemistry.xyzClass
xyzClass
p289
(dp290
g10
I1
sg11
F57.295779513082323
sS'y'
F0.36199999999999999
sS'x'
F2.1070000000000002
sg12
(F2.1070000000000002
F0.36199999999999999
F-2.0710000000000002
tp291
sS'z'
F-2.0710000000000002
sbsg14
(ielbow.chemistry.xyzClass
xyzClass
p292
(dp293
g10
I1
sg11
F57.295779513082323
sS'y'
F-0.89735199144471045
sS'x'
F1.6305017234054877
sg12
(F1.6305017234054877
F-0.89735199144471045
F1.9439809655192166
tp294
sS'z'
F1.9439809655192166
sbsg12
(ielbow.chemistry.xyzClass
xyzClass
p295
(dp296
g10
I0
sg11
F57.295779513082323
sS'y'
F-0.34921970033592453
sS'x'
F1.5246342344344022
sg12
(F1.5246342344344022
F-0.34921970033592453
F2.1054749392486189
tp297
sS'z'
F2.1054749392486189
sbsg21
I1
sg22
(lp298
sg24
S'2H12'
p299
sg26
Nsg28
F1
sg29
I0
sg30
I20
sg31
S'TBA:1:A:'
p300
sg33
S'TBA:1:A:???'
p301
sg35
g36
sg37
I20
sg38
S'   21'
p302
sg40
S'H122'
p303
sg42
g239
sg44
g289
sg45
g303
sg46
I1
sg47
I21
sg48
S' '
sS'x'
F1.5246342344344022
sS'z'
F2.1054749392486189
sg49
I20
sg50
F20
sg51
I139984369797024
sg52
S''
sg53
S'TBA'
p304
sg55
S'   21'
p305
sg57
I139984369797024
sg58
(lp306
g82
asg164
I21
sg165
Nsg166
g289
sg167
(lp307
sg169
S'A'
sg170
g303
sg171
S'H'
sg172
S'A'
sg173
g295
sg174
I01
sg175
S''
sg176
S'H'
sg177
F1.0079
sS'y'
F-0.34921970033592453
sg178
I0
sbasg164
I3
sg165
Nsg166
g84
sg167
(lp308
sg169
S'A'
sg170
g98
sg171
S'C'
sg172
S'A'
sg173
g90
sg174
I01
sg175
S''
sg176
S'C'
sg177
F12.010999999999999
sS'y'
F0.33485238376684789
sg178
I0
sba(ielbow.chemistry.AtomClass
AtomClass
p309
(dp310
g7
(ielbow.chemistry.xyzClass
xyzClass
p311
(dp312
g10
I1
sg11
F57.295779513082323
sS'y'
F-0.39400000000000002
sS'x'
F0.35799999999999998
sg12
(F0.35799999999999998
F-0.39400000000000002
F-3.7320000000000002
tp313
sS'z'
F-3.7320000000000002
sbsg14
(ielbow.chemistry.xyzClass
xyzClass
p314
(dp315
g10
I1
sg11
F57.295779513082323
sS'y'
F-0.8844686311375245
sS'x'
F1.8208311698147788
sg12
(F1.8208311698147788
F-0.8844686311375245
F-0.5107638472642817
tp316
sS'z'
F-0.5107638472642817
sbsg12
(ielbow.chemistry.xyzClass
xyzClass
p317
(dp318
g10
I0
sg11
F57.295779513082323
sS'y'
F-0.88319393124987944
sS'x'
F1.8789476855956098
sg12
(F1.8789476855956098
F-0.88319393124987944
F-0.35848744176198893
tp319
sS'z'
F-0.35848744176198893
sbsg21
I1
sg22
(lp320
sg24
S'1H11'
p321
sg26
Nsg28
F1
sg29
I0
sg30
I17
sg31
S'TBA:1:A:'
p322
sg33
S'TBA:1:A:???'
p323
sg35
g36
sg37
I17
sg38
S'   18'
p324
sg40
S'H111'
p325
sg42
g239
sg44
g311
sg45
g325
sg46
I1
sg47
I18
sg48
S' '
sS'x'
F1.8789476855956098
sS'z'
F-0.35848744176198893
sg49
I17
sg50
F20
sg51
I139984369796016
sg52
S''
sg53
S'TBA'
p326
sg55
S'   18'
p327
sg57
I139984369796016
sg58
(lp328
g60
asg164
I18
sg165
Nsg166
g311
sg167
(lp329
sg169
S'A'
sg170
g325
sg171
S'H'
sg172
S'A'
sg173
g317
sg174
I01
sg175
S''
sg176
S'H'
sg177
F1.0079
sS'y'
F-0.88319393124987944
sg178
I0
sba(ielbow.chemistry.AtomClass
AtomClass
p330
(dp331
g7
(ielbow.chemistry.xyzClass
xyzClass
p332
(dp333
g10
I1
sg11
F57.295779513082323
sS'y'
F0.93799999999999994
sS'x'
F0.84599999999999997
sg12
(F0.84599999999999997
F0.93799999999999994
F-4.8209999999999997
tp334
sS'z'
F-4.8209999999999997
sbsg14
(ielbow.chemistry.xyzClass
xyzClass
p335
(dp336
g10
I1
sg11
F57.295779513082323
sS'y'
F0.88444143669826403
sS'x'
F1.8208585162760962
sg12
(F1.8208585162760962
F0.88444143669826403
F-0.51079160307650784
tp337
sS'z'
F-0.51079160307650784
sbsg12
(ielbow.chemistry.xyzClass
xyzClass
p338
(dp339
g10
I0
sg11
F57.295779513082323
sS'y'
F0.85762194850600981
sS'x'
F1.7927109047079921
sg12
(F1.7927109047079921
F0.85762194850600981
F-0.66649439163487667
tp340
sS'z'
F-0.66649439163487667
sbsg21
I1
sg22
(lp341
sg24
S'2H11'
p342
sg26
Nsg28
F1
sg29
I0
sg30
I18
sg31
S'TBA:1:A:'
p343
sg33
S'TBA:1:A:???'
p344
sg35
g36
sg37
I18
sg38
S'   19'
p345
sg40
S'H112'
p346
sg42
g239
sg44
g332
sg45
g346
sg46
I1
sg47
I19
sg48
S' '
sS'x'
F1.7927109047079921
sS'z'
F-0.66649439163487667
sg49
I18
sg50
F20
sg51
I139984369796736
sg52
S''
sg53
S'TBA'
p347
sg55
S'   19'
p348
sg57
I139984369796736
sg58
(lp349
g60
asg164
I19
sg165
Nsg166
g332
sg167
(lp350
sg169
S'A'
sg170
g346
sg171
S'H'
sg172
S'A'
sg173
g338
sg174
I01
sg175
S''
sg176
S'H'
sg177
F1.0079
sS'y'
F0.85762194850600981
sg178
I0
sbasg164
I2
sg165
Nsg166
g62
sg167
(lp351
sg169
S'A'
sg170
g77
sg171
S'C'
sg172
S'A'
sg173
g68
sg174
I01
sg175
S''
sg176
S'C'
sg177
F12.010999999999999
sS'y'
F0.059325608377260079
sg178
I0
sba(ielbow.chemistry.AtomClass
AtomClass
p352
(dp353
g7
(ielbow.chemistry.xyzClass
xyzClass
p354
(dp355
g10
I1
sg11
F57.295779513082323
sS'y'
F0.28999999999999998
sS'x'
F3.4460000000000002
sg12
(F3.4460000000000002
F0.28999999999999998
F-5.0199999999999996
tp356
sS'z'
F-5.0199999999999996
sbsg14
(ielbow.chemistry.xyzClass
xyzClass
p357
(dp358
g10
I1
sg11
F57.295779513082323
sS'y'
F-1.0942880423138737
sS'x'
F-0.48568653365257541
sg12
(F-0.48568653365257541
F-1.0942880423138737
F0.83186633154108336
tp359
sS'z'
F0.83186633154108336
sbsg12
(ielbow.chemistry.xyzClass
xyzClass
p360
(dp361
g10
I1
sg11
F57.295779513082323
sS'y'
F-1.1169349240096442
sS'x'
F-0.39978555254457754
sg12
(F-0.39978555254457754
F-1.1169349240096442
F0.86324077338608873
tp362
sS'z'
F0.86324077338608873
sbsg21
I6
sg22
(lp363
sg24
S'C21'
p364
sg26
g73
sg28
F1
sg29
I0
sg30
I3
sg31
S'TBA:1:A:'
p365
sg33
S'TBA:1:A:???'
p366
sg35
g36
sg37
I3
sg38
S'    4'
p367
sg40
S' C21'
p368
sg42
g78
sg44
g354
sg45
g368
sg46
I1
sg47
I4
sg48
S' '
sS'x'
F-0.39978555254457754
sS'z'
F0.86324077338608873
sg49
I3
sg50
F20
sg51
I139984369570016
sg52
S''
sg53
S'TBA'
p369
sg55
S'    4'
p370
sg57
I139984369570016
sg58
(lp371
g5
a(ielbow.chemistry.AtomClass
AtomClass
p372
(dp373
g7
(ielbow.chemistry.xyzClass
xyzClass
p374
(dp375
g10
I1
sg11
F57.295779513082323
sS'y'
F1.2549999999999999
sS'x'
F2.9780000000000002
sg12
(F2.9780000000000002
F1.2549999999999999
F-6.0990000000000002
tp376
sS'z'
F-6.0990000000000002
sbsg14
(ielbow.chemistry.xyzClass
xyzClass
p377
(dp378
g10
I1
sg11
F57.295779513082323
sS'y'
F-2.4300726539818545
sS'x'
F-0.16186766915280015
sg12
(F-0.16186766915280015
F-2.4300726539818545
F0.15840686417536964
tp379
sS'z'
F0.15840686417536964
sbsg12
(ielbow.chemistry.xyzClass
xyzClass
p380
(dp381
g10
I1
sg11
F57.295779513082323
sS'y'
F-2.44075957947706
sS'x'
F0.019857730317773863
sg12
(F0.019857730317773863
F-2.44075957947706
F0.22001528379611021
tp382
sS'z'
F0.22001528379611021
sbsg21
I6
sg22
(lp383
sg24
S'C22'
p384
sg26
g73
sg28
F1
sg29
I0
sg30
I4
sg31
S'TBA:1:A:'
p385
sg33
S'TBA:1:A:???'
p386
sg35
g36
sg37
I4
sg38
S'    5'
p387
sg40
S' C22'
p388
sg42
g78
sg44
g374
sg45
g388
sg46
I1
sg47
I5
sg48
S' '
sS'x'
F0.019857730317773863
sS'z'
F0.22001528379611021
sg49
I4
sg50
F20
sg51
I139984369570160
sg52
S''
sg53
S'TBA'
p389
sg55
S'    5'
p390
sg57
I139984369570160
sg58
(lp391
g352
a(ielbow.chemistry.AtomClass
AtomClass
p392
(dp393
g7
(ielbow.chemistry.xyzClass
xyzClass
p394
(dp395
g10
I1
sg11
F57.295779513082323
sS'y'
F2.1030000000000002
sS'x'
F4.1379999999999999
sg12
(F4.1379999999999999
F2.1030000000000002
F-6.6180000000000003
tp396
sS'z'
F-6.6180000000000003
sbsg14
(ielbow.chemistry.xyzClass
xyzClass
p397
(dp398
g10
I1
sg11
F57.295779513082323
sS'y'
F-3.5782073959921581
sS'x'
F-0.61072612320799669
sg12
(F-0.61072612320799669
F-3.5782073959921581
F1.0616451798118154
tp399
sS'z'
F1.0616451798118154
sbsg12
(ielbow.chemistry.xyzClass
xyzClass
p400
(dp401
g10
I1
sg11
F57.295779513082323
sS'y'
F-3.603087031363303
sS'x'
F-0.5148017104290713
sg12
(F-0.5148017104290713
F-3.603087031363303
F1.052859338383253
tp402
sS'z'
F1.052859338383253
sbsg21
I6
sg22
(lp403
sg24
S'C23'
p404
sg26
g73
sg28
F1
sg29
I0
sg30
I11
sg31
S'TBA:1:A:'
p405
sg33
S'TBA:1:A:???'
p406
sg35
g36
sg37
I11
sg38
S'   12'
p407
sg40
S' C23'
p408
sg42
g78
sg44
g394
sg45
g408
sg46
I1
sg47
I12
sg48
S' '
sS'x'
F-0.5148017104290713
sS'z'
F1.052859338383253
sg49
I11
sg50
F20
sg51
I139984369798464
sg52
S''
sg53
S'TBA'
p409
sg55
S'   12'
p410
sg57
I139984369798464
sg58
(lp411
g372
a(ielbow.chemistry.AtomClass
AtomClass
p412
(dp413
g7
(ielbow.chemistry.xyzClass
xyzClass
p414
(dp415
g10
I1
sg11
F57.295779513082323
sS'y'
F3.0459999999999998
sS'x'
F3.6890000000000001
sg12
(F3.6890000000000001
F3.0459999999999998
F-7.7220000000000004
tp416
sS'z'
F-7.7220000000000004
sbsg14
(ielbow.chemistry.xyzClass
xyzClass
p417
(dp418
g10
I1
sg11
F57.295779513082323
sS'y'
F-4.9051243547161683
sS'x'
F-0.11590405827635086
sg12
(F-0.11590405827635086
F-4.9051243547161683
F0.48283659960848235
tp419
sS'z'
F0.48283659960848235
sbsg12
(ielbow.chemistry.xyzClass
xyzClass
p420
(dp421
g10
I1
sg11
F57.295779513082323
sS'y'
F-4.9237918014999345
sS'x'
F-0.047292586580015311
sg12
(F-0.047292586580015311
F-4.9237918014999345
F0.44336891711188298
tp422
sS'z'
F0.44336891711188298
sbsg21
I6
sg22
(lp423
sg24
S'C24'
p424
sg26
g73
sg28
F1
sg29
I0
sg30
I12
sg31
S'TBA:1:A:'
p425
sg33
S'TBA:1:A:???'
p426
sg35
g36
sg37
I12
sg38
S'   13'
p427
sg40
S' C24'
p428
sg42
g139
sg44
g414
sg45
g428
sg46
I1
sg47
I13
sg48
S' '
sS'x'
F-0.047292586580015311
sS'z'
F0.44336891711188298
sg49
I12
sg50
F20
sg51
I139984369796088
sg52
S''
sg53
S'TBA'
p429
sg55
S'   13'
p430
sg57
I139984369796088
sg58
(lp431
g392
a(ielbow.chemistry.AtomClass
AtomClass
p432
(dp433
g7
(ielbow.chemistry.xyzClass
xyzClass
p434
(dp435
g10
I1
sg11
F57.295779513082323
sS'y'
F3.7330000000000001
sS'x'
F2.9169999999999998
sg12
(F2.9169999999999998
F3.7330000000000001
F-7.3609999999999998
tp436
sS'z'
F-7.3609999999999998
sbsg14
(ielbow.chemistry.xyzClass
xyzClass
p437
(dp438
g10
I0
sg11
F57.295779513082323
sS'y'
F-5.022539334934355
sS'x'
F-0.49374348975110288
sg12
(F-0.49374348975110288
F-5.022539334934355
F-0.52563227741460117
tp439
sS'z'
F-0.52563227741460117
sbsg12
(ielbow.chemistry.xyzClass
xyzClass
p440
(dp441
g10
I0
sg11
F57.295779513082323
sS'y'
F-4.9933586200238187
sS'x'
F-0.3978155947576269
sg12
(F-0.3978155947576269
F-4.9933586200238187
F-0.58264542133002262
tp442
sS'z'
F-0.58264542133002262
sbsg21
I1
sg22
(lp443
sg24
S'1H24'
p444
sg26
Nsg28
F1
sg29
I0
sg30
I40
sg31
S'TBA:1:A:'
p445
sg33
S'TBA:1:A:???'
p446
sg35
g36
sg37
I40
sg38
S'   41'
p447
sg40
S'H241'
p448
sg42
g160
sg44
g434
sg45
g448
sg46
I1
sg47
I41
sg48
S' '
sS'x'
F-0.3978155947576269
sS'z'
F-0.58264542133002262
sg49
I40
sg50
F20
sg51
I139984369677376
sg52
S''
sg53
S'TBA'
p449
sg55
S'   41'
p450
sg57
I139984369677376
sg58
(lp451
g412
asg164
I41
sg165
Nsg166
g434
sg167
(lp452
sg169
S'A'
sg170
g448
sg171
S'H'
sg172
S'A'
sg173
g440
sg174
I01
sg175
S''
sg176
S'H'
sg177
F1.0079
sS'y'
F-4.9933586200238187
sg178
I0
sba(ielbow.chemistry.AtomClass
AtomClass
p453
(dp454
g7
(ielbow.chemistry.xyzClass
xyzClass
p455
(dp456
g10
I1
sg11
F57.295779513082323
sS'y'
F2.4889999999999999
sS'x'
F3.2829999999999999
sg12
(F3.2829999999999999
F2.4889999999999999
F-8.5730000000000004
tp457
sS'z'
F-8.5730000000000004
sbsg14
(ielbow.chemistry.xyzClass
xyzClass
p458
(dp459
g10
I0
sg11
F57.295779513082323
sS'y'
F-5.7225191455222877
sS'x'
F-0.47083610964075062
sg12
(F-0.47083610964075062
F-5.7225191455222877
F1.0988296063531044
tp460
sS'z'
F1.0988296063531044
sbsg12
(ielbow.chemistry.xyzClass
xyzClass
p461
(dp462
g10
I0
sg11
F57.295779513082323
sS'y'
F-5.7512642950503077
sS'x'
F-0.44973706221361587
sg12
(F-0.44973706221361587
F-5.7512642950503077
F1.0203145950249368
tp463
sS'z'
F1.0203145950249368
sbsg21
I1
sg22
(lp464
sg24
S'2H24'
p465
sg26
Nsg28
F1
sg29
I0
sg30
I41
sg31
S'TBA:1:A:'
p466
sg33
S'TBA:1:A:???'
p467
sg35
g36
sg37
I41
sg38
S'   42'
p468
sg40
S'H242'
p469
sg42
g160
sg44
g455
sg45
g469
sg46
I1
sg47
I42
sg48
S' '
sS'x'
F-0.44973706221361587
sS'z'
F1.0203145950249368
sg49
I41
sg50
F20
sg51
I139984369677664
sg52
S''
sg53
S'TBA'
p470
sg55
S'   42'
p471
sg57
I139984369677664
sg58
(lp472
g412
asg164
I42
sg165
Nsg166
g455
sg167
(lp473
sg169
S'A'
sg170
g469
sg171
S'H'
sg172
S'A'
sg173
g461
sg174
I01
sg175
S''
sg176
S'H'
sg177
F1.0079
sS'y'
F-5.7512642950503077
sg178
I0
sba(ielbow.chemistry.AtomClass
AtomClass
p474
(dp475
g7
(ielbow.chemistry.xyzClass
xyzClass
p476
(dp477
g10
I1
sg11
F57.295779513082323
sS'y'
F3.6429999999999998
sS'x'
F4.5350000000000001
sg12
(F4.5350000000000001
F3.6429999999999998
F-8.0779999999999994
tp478
sS'z'
F-8.0779999999999994
sbsg14
(ielbow.chemistry.xyzClass
xyzClass
p479
(dp480
g10
I0
sg11
F57.295779513082323
sS'y'
F-4.910039632932591
sS'x'
F0.96725460349667725
sg12
(F0.96725460349667725
F-4.910039632932591
F0.46547160760968043
tp481
sS'z'
F0.46547160760968043
sbsg12
(ielbow.chemistry.xyzClass
xyzClass
p482
(dp483
g10
I0
sg11
F57.295779513082323
sS'y'
F-4.9655847958963566
sS'x'
F1.0382296349373423
sg12
(F1.0382296349373423
F-4.9655847958963566
F0.45884792141387903
tp484
sS'z'
F0.45884792141387903
sbsg21
I1
sg22
(lp485
sg24
S'3H24'
p486
sg26
Nsg28
F1
sg29
I0
sg30
I42
sg31
S'TBA:1:A:'
p487
sg33
S'TBA:1:A:???'
p488
sg35
g36
sg37
I42
sg38
S'   43'
p489
sg40
S'H243'
p490
sg42
g160
sg44
g476
sg45
g490
sg46
I1
sg47
I43
sg48
S' '
sS'x'
F1.0382296349373423
sS'z'
F0.45884792141387903
sg49
I42
sg50
F20
sg51
I139984369678096
sg52
S''
sg53
S'TBA'
p491
sg55
S'   43'
p492
sg57
I139984369678096
sg58
(lp493
g412
asg164
I43
sg165
Nsg166
g476
sg167
(lp494
sg169
S'A'
sg170
g490
sg171
S'H'
sg172
S'A'
sg173
g482
sg174
I01
sg175
S''
sg176
S'H'
sg177
F1.0079
sS'y'
F-4.9655847958963566
sg178
I0
sbasg164
I13
sg165
Nsg166
g414
sg167
(lp495
sg169
S'A'
sg170
g428
sg171
S'C'
sg172
S'A'
sg173
g420
sg174
I01
sg175
S''
sg176
S'C'
sg177
F12.010999999999999
sS'y'
F-4.9237918014999345
sg178
I0
sba(ielbow.chemistry.AtomClass
AtomClass
p496
(dp497
g7
(ielbow.chemistry.xyzClass
xyzClass
p498
(dp499
g10
I1
sg11
F57.295779513082323
sS'y'
F1.452
sS'x'
F4.9320000000000004
sg12
(F4.9320000000000004
F1.452
F-7.0019999999999998
tp500
sS'z'
F-7.0019999999999998
sbsg14
(ielbow.chemistry.xyzClass
xyzClass
p501
(dp502
g10
I0
sg11
F57.295779513082323
sS'y'
F-3.4403498108516843
sS'x'
F-0.19742732617709002
sg12
(F-0.19742732617709002
F-3.4403498108516843
F2.0534807408162807
tp503
sS'z'
F2.0534807408162807
sbsg12
(ielbow.chemistry.xyzClass
xyzClass
p504
(dp505
g10
I0
sg11
F57.295779513082323
sS'y'
F-3.5216186986278708
sS'x'
F-0.14228209069099659
sg12
(F-0.14228209069099659
F-3.5216186986278708
F2.0684649397995418
tp506
sS'z'
F2.0684649397995418
sbsg21
I1
sg22
(lp507
sg24
S'1H23'
p508
sg26
Nsg28
F1
sg29
I0
sg30
I38
sg31
S'TBA:1:A:'
p509
sg33
S'TBA:1:A:???'
p510
sg35
g36
sg37
I38
sg38
S'   39'
p511
sg40
S'H231'
p512
sg42
g239
sg44
g498
sg45
g512
sg46
I1
sg47
I39
sg48
S' '
sS'x'
F-0.14228209069099659
sS'z'
F2.0684649397995418
sg49
I38
sg50
F20
sg51
I139984369676944
sg52
S''
sg53
S'TBA'
p513
sg55
S'   39'
p514
sg57
I139984369676944
sg58
(lp515
g392
asg164
I39
sg165
Nsg166
g498
sg167
(lp516
sg169
S'A'
sg170
g512
sg171
S'H'
sg172
S'A'
sg173
g504
sg174
I01
sg175
S''
sg176
S'H'
sg177
F1.0079
sS'y'
F-3.5216186986278708
sg178
I0
sba(ielbow.chemistry.AtomClass
AtomClass
p517
(dp518
g7
(ielbow.chemistry.xyzClass
xyzClass
p519
(dp520
g10
I1
sg11
F57.295779513082323
sS'y'
F2.6890000000000001
sS'x'
F4.5679999999999996
sg12
(F4.5679999999999996
F2.6890000000000001
F-5.7969999999999997
tp521
sS'z'
F-5.7969999999999997
sbsg14
(ielbow.chemistry.xyzClass
xyzClass
p522
(dp523
g10
I0
sg11
F57.295779513082323
sS'y'
F-3.5905043439416264
sS'x'
F-1.6924106500824176
sg12
(F-1.6924106500824176
F-3.5905043439416264
F1.1196603405250989
tp524
sS'z'
F1.1196603405250989
sbsg12
(ielbow.chemistry.xyzClass
xyzClass
p525
(dp526
g10
I0
sg11
F57.295779513082323
sS'y'
F-3.5727575577115527
sS'x'
F-1.5990255516153855
sg12
(F-1.5990255516153855
F-3.5727575577115527
F1.0618907089326155
tp527
sS'z'
F1.0618907089326155
sbsg21
I1
sg22
(lp528
sg24
S'2H23'
p529
sg26
Nsg28
F1
sg29
I0
sg30
I39
sg31
S'TBA:1:A:'
p530
sg33
S'TBA:1:A:???'
p531
sg35
g36
sg37
I39
sg38
S'   40'
p532
sg40
S'H232'
p533
sg42
g239
sg44
g519
sg45
g533
sg46
I1
sg47
I40
sg48
S' '
sS'x'
F-1.5990255516153855
sS'z'
F1.0618907089326155
sg49
I39
sg50
F20
sg51
I139984369677088
sg52
S''
sg53
S'TBA'
p534
sg55
S'   40'
p535
sg57
I139984369677088
sg58
(lp536
g392
asg164
I40
sg165
Nsg166
g519
sg167
(lp537
sg169
S'A'
sg170
g533
sg171
S'H'
sg172
S'A'
sg173
g525
sg174
I01
sg175
S''
sg176
S'H'
sg177
F1.0079
sS'y'
F-3.5727575577115527
sg178
I0
sbasg164
I12
sg165
Nsg166
g394
sg167
(lp538
sg169
S'A'
sg170
g408
sg171
S'C'
sg172
S'A'
sg173
g400
sg174
I01
sg175
S''
sg176
S'C'
sg177
F12.010999999999999
sS'y'
F-3.603087031363303
sg178
I0
sba(ielbow.chemistry.AtomClass
AtomClass
p539
(dp540
g7
(ielbow.chemistry.xyzClass
xyzClass
p541
(dp542
g10
I1
sg11
F57.295779513082323
sS'y'
F1.9099999999999999
sS'x'
F2.1949999999999998
sg12
(F2.1949999999999998
F1.9099999999999999
F-5.6970000000000001
tp543
sS'z'
F-5.6970000000000001
sbsg14
(ielbow.chemistry.xyzClass
xyzClass
p544
(dp545
g10
I0
sg11
F57.295779513082323
sS'y'
F-2.4998932947442789
sS'x'
F0.90591017277912189
sg12
(F0.90591017277912189
F-2.4998932947442789
F-0.010513081016819741
tp546
sS'z'
F-0.010513081016819741
sbsg12
(ielbow.chemistry.xyzClass
xyzClass
p547
(dp548
g10
I0
sg11
F57.295779513082323
sS'y'
F-2.494731982256313
sS'x'
F1.1021110717257467
sg12
(F1.1021110717257467
F-2.494731982256313
F0.17685236227651299
tp549
sS'z'
F0.17685236227651299
sbsg21
I1
sg22
(lp550
sg24
S'1H22'
p551
sg26
Nsg28
F1
sg29
I0
sg30
I23
sg31
S'TBA:1:A:'
p552
sg33
S'TBA:1:A:???'
p553
sg35
g36
sg37
I23
sg38
S'   24'
p554
sg40
S'H221'
p555
sg42
g239
sg44
g541
sg45
g555
sg46
I1
sg47
I24
sg48
S' '
sS'x'
F1.1021110717257467
sS'z'
F0.17685236227651299
sg49
I23
sg50
F20
sg51
I139984369797456
sg52
S''
sg53
S'TBA'
p556
sg55
S'   24'
p557
sg57
I139984369797456
sg58
(lp558
g372
asg164
I24
sg165
Nsg166
g541
sg167
(lp559
sg169
S'A'
sg170
g555
sg171
S'H'
sg172
S'A'
sg173
g547
sg174
I01
sg175
S''
sg176
S'H'
sg177
F1.0079
sS'y'
F-2.494731982256313
sg178
I0
sba(ielbow.chemistry.AtomClass
AtomClass
p560
(dp561
g7
(ielbow.chemistry.xyzClass
xyzClass
p562
(dp563
g10
I1
sg11
F57.295779513082323
sS'y'
F0.69499999999999995
sS'x'
F2.5310000000000001
sg12
(F2.5310000000000001
F0.69499999999999995
F-6.9299999999999997
tp564
sS'z'
F-6.9299999999999997
sbsg14
(ielbow.chemistry.xyzClass
xyzClass
p565
(dp566
g10
I0
sg11
F57.295779513082323
sS'y'
F-2.4920575763059993
sS'x'
F-0.68220433309777107
sg12
(F-0.68220433309777107
F-2.4920575763059993
F-0.78973131934013885
tp567
sS'z'
F-0.78973131934013885
sbsg12
(ielbow.chemistry.xyzClass
xyzClass
p568
(dp569
g10
I0
sg11
F57.295779513082323
sS'y'
F-2.4991652949316094
sS'x'
F-0.3849932082976647
sg12
(F-0.3849932082976647
F-2.4991652949316094
F-0.78325355117290196
tp570
sS'z'
F-0.78325355117290196
sbsg21
I1
sg22
(lp571
sg24
S'2H22'
p572
sg26
Nsg28
F1
sg29
I0
sg30
I24
sg31
S'TBA:1:A:'
p573
sg33
S'TBA:1:A:???'
p574
sg35
g36
sg37
I24
sg38
S'   25'
p575
sg40
S'H222'
p576
sg42
g239
sg44
g562
sg45
g576
sg46
I1
sg47
I25
sg48
S' '
sS'x'
F-0.3849932082976647
sS'z'
F-0.78325355117290196
sg49
I24
sg50
F20
sg51
I139984369797600
sg52
S''
sg53
S'TBA'
p577
sg55
S'   25'
p578
sg57
I139984369797600
sg58
(lp579
g372
asg164
I25
sg165
Nsg166
g562
sg167
(lp580
sg169
S'A'
sg170
g576
sg171
S'H'
sg172
S'A'
sg173
g568
sg174
I01
sg175
S''
sg176
S'H'
sg177
F1.0079
sS'y'
F-2.4991652949316094
sg178
I0
sbasg164
I5
sg165
Nsg166
g374
sg167
(lp581
sg169
S'A'
sg170
g388
sg171
S'C'
sg172
S'A'
sg173
g380
sg174
I01
sg175
S''
sg176
S'C'
sg177
F12.010999999999999
sS'y'
F-2.44075957947706
sg178
I0
sba(ielbow.chemistry.AtomClass
AtomClass
p582
(dp583
g7
(ielbow.chemistry.xyzClass
xyzClass
p584
(dp585
g10
I1
sg11
F57.295779513082323
sS'y'
F-0.39800000000000002
sS'x'
F4.2130000000000001
sg12
(F4.2130000000000001
F-0.39800000000000002
F-5.3899999999999997
tp586
sS'z'
F-5.3899999999999997
sbsg14
(ielbow.chemistry.xyzClass
xyzClass
p587
(dp588
g10
I0
sg11
F57.295779513082323
sS'y'
F-1.0524488549235027
sS'x'
F-0.0037975232541748172
sg12
(F-0.0037975232541748172
F-1.0524488549235027
F1.8011912788816351
tp589
sS'z'
F1.8011912788816351
sbsg12
(ielbow.chemistry.xyzClass
xyzClass
p590
(dp591
g10
I0
sg11
F57.295779513082323
sS'y'
F-1.0247671582449589
sS'x'
F0.066552167156655698
sg12
(F0.066552167156655698
F-1.0247671582449589
F1.837640286069649
tp592
sS'z'
F1.837640286069649
sbsg21
I1
sg22
(lp593
sg24
S'1H21'
p594
sg26
Nsg28
F1
sg29
I0
sg30
I21
sg31
S'TBA:1:A:'
p595
sg33
S'TBA:1:A:???'
p596
sg35
g36
sg37
I21
sg38
S'   22'
p597
sg40
S'H211'
p598
sg42
g239
sg44
g584
sg45
g598
sg46
I1
sg47
I22
sg48
S' '
sS'x'
F0.066552167156655698
sS'z'
F1.837640286069649
sg49
I21
sg50
F20
sg51
I139984369797168
sg52
S''
sg53
S'TBA'
p599
sg55
S'   22'
p600
sg57
I139984369797168
sg58
(lp601
g352
asg164
I22
sg165
Nsg166
g584
sg167
(lp602
sg169
S'A'
sg170
g598
sg171
S'H'
sg172
S'A'
sg173
g590
sg174
I01
sg175
S''
sg176
S'H'
sg177
F1.0079
sS'y'
F-1.0247671582449589
sg178
I0
sba(ielbow.chemistry.AtomClass
AtomClass
p603
(dp604
g7
(ielbow.chemistry.xyzClass
xyzClass
p605
(dp606
g10
I1
sg11
F57.295779513082323
sS'y'
F0.81399999999999995
sS'x'
F3.8180000000000001
sg12
(F3.8180000000000001
F0.81399999999999995
F-4.1340000000000003
tp607
sS'z'
F-4.1340000000000003
sbsg14
(ielbow.chemistry.xyzClass
xyzClass
p608
(dp609
g10
I0
sg11
F57.295779513082323
sS'y'
F-1.0039118477840587
sS'x'
F-1.5578680516907217
sg12
(F-1.5578680516907217
F-1.0039118477840587
F0.95763327998432646
tp610
sS'z'
F0.95763327998432646
sbsg12
(ielbow.chemistry.xyzClass
xyzClass
p611
(dp612
g10
I0
sg11
F57.295779513082323
sS'y'
F-1.0954040867824235
sS'x'
F-1.477708209377715
sg12
(F-1.477708209377715
F-1.0954040867824235
F0.97513372059647097
tp613
sS'z'
F0.97513372059647097
sbsg21
I1
sg22
(lp614
sg24
S'2H21'
p615
sg26
Nsg28
F1
sg29
I0
sg30
I22
sg31
S'TBA:1:A:'
p616
sg33
S'TBA:1:A:???'
p617
sg35
g36
sg37
I22
sg38
S'   23'
p618
sg40
S'H212'
p619
sg42
g239
sg44
g605
sg45
g619
sg46
I1
sg47
I23
sg48
S' '
sS'x'
F-1.477708209377715
sS'z'
F0.97513372059647097
sg49
I22
sg50
F20
sg51
I139984369797312
sg52
S''
sg53
S'TBA'
p620
sg55
S'   23'
p621
sg57
I139984369797312
sg58
(lp622
g352
asg164
I23
sg165
Nsg166
g605
sg167
(lp623
sg169
S'A'
sg170
g619
sg171
S'H'
sg172
S'A'
sg173
g611
sg174
I01
sg175
S''
sg176
S'H'
sg177
F1.0079
sS'y'
F-1.0954040867824235
sg178
I0
sbasg164
I4
sg165
Nsg166
g354
sg167
(lp624
sg169
S'A'
sg170
g368
sg171
S'C'
sg172
S'A'
sg173
g360
sg174
I01
sg175
S''
sg176
S'C'
sg177
F12.010999999999999
sS'y'
F-1.1169349240096442
sg178
I0
sba(ielbow.chemistry.AtomClass
AtomClass
p625
(dp626
g7
(ielbow.chemistry.xyzClass
xyzClass
p627
(dp628
g10
I1
sg11
F57.295779513082323
sS'y'
F-1.3759999999999999
sS'x'
F1.7629999999999999
sg12
(F1.7629999999999999
F-1.3759999999999999
F-5.7720000000000002
tp629
sS'z'
F-5.7720000000000002
sbsg14
(ielbow.chemistry.xyzClass
xyzClass
p630
(dp631
g10
I1
sg11
F57.295779513082323
sS'y'
F-0.17330711100058432
sS'x'
F-0.48652927127015377
sg12
(F-0.48652927127015377
F-0.17330711100058432
F-1.366599816750091
tp632
sS'z'
F-1.366599816750091
sbsg12
(ielbow.chemistry.xyzClass
xyzClass
p633
(dp634
g10
I1
sg11
F57.295779513082323
sS'y'
F-0.21790419365291888
sS'x'
F-0.47217472538490529
sg12
(F-0.47217472538490529
F-0.21790419365291888
F-1.3392480426212605
tp635
sS'z'
F-1.3392480426212605
sbsg21
I6
sg22
(lp636
sg24
S'C31'
p637
sg26
g73
sg28
F1
sg29
I0
sg30
I5
sg31
S'TBA:1:A:'
p638
sg33
S'TBA:1:A:???'
p639
sg35
g36
sg37
I5
sg38
S'    6'
p640
sg40
S' C31'
p641
sg42
g78
sg44
g627
sg45
g641
sg46
I1
sg47
I6
sg48
S' '
sS'x'
F-0.47217472538490529
sS'z'
F-1.3392480426212605
sg49
I5
sg50
F20
sg51
I139984369570736
sg52
S''
sg53
S'TBA'
p642
sg55
S'    6'
p643
sg57
I139984369570736
sg58
(lp644
g5
a(ielbow.chemistry.AtomClass
AtomClass
p645
(dp646
g7
(ielbow.chemistry.xyzClass
xyzClass
p647
(dp648
g10
I1
sg11
F57.295779513082323
sS'y'
F-2.23
sS'x'
F2.9039999999999999
sg12
(F2.9039999999999999
F-2.23
F-6.3049999999999997
tp649
sS'z'
F-6.3049999999999997
sbsg14
(ielbow.chemistry.xyzClass
xyzClass
p650
(dp651
g10
I1
sg11
F57.295779513082323
sS'y'
F-0.33275472777581605
sS'x'
F-2.0085160475991568
sg12
(F-2.0085160475991568
F-0.33275472777581605
F-1.3506691807338025
tp652
sS'z'
F-1.3506691807338025
sbsg12
(ielbow.chemistry.xyzClass
xyzClass
p653
(dp654
g10
I1
sg11
F57.295779513082323
sS'y'
F-0.12907665986150946
sS'x'
F-1.9994342664061768
sg12
(F-1.9994342664061768
F-0.12907665986150946
F-1.3438562156205545
tp655
sS'z'
F-1.3438562156205545
sbsg21
I6
sg22
(lp656
sg24
S'C32'
p657
sg26
g73
sg28
F1
sg29
I0
sg30
I6
sg31
S'TBA:1:A:'
p658
sg33
S'TBA:1:A:???'
p659
sg35
g36
sg37
I6
sg38
S'    7'
p660
sg40
S' C32'
p661
sg42
g78
sg44
g647
sg45
g661
sg46
I1
sg47
I7
sg48
S' '
sS'x'
F-1.9994342664061768
sS'z'
F-1.3438562156205545
sg49
I6
sg50
F20
sg51
I139984369569872
sg52
S''
sg53
S'TBA'
p662
sg55
S'    7'
p663
sg57
I139984369569872
sg58
(lp664
g625
a(ielbow.chemistry.AtomClass
AtomClass
p665
(dp666
g7
(ielbow.chemistry.xyzClass
xyzClass
p667
(dp668
g10
I1
sg11
F57.295779513082323
sS'y'
F-3.0179999999999998
sS'x'
F2.4689999999999999
sg12
(F2.4689999999999999
F-3.0179999999999998
F-7.54
tp669
sS'z'
F-7.54
sbsg14
(ielbow.chemistry.xyzClass
xyzClass
p670
(dp671
g10
I1
sg11
F57.295779513082323
sS'y'
F-0.3096691533601571
sS'x'
F-2.539474367973046
sg12
(F-2.539474367973046
F-0.3096691533601571
F-2.7884409645717172
tp672
sS'z'
F-2.7884409645717172
sbsg12
(ielbow.chemistry.xyzClass
xyzClass
p673
(dp674
g10
I1
sg11
F57.295779513082323
sS'y'
F-0.28076882358339256
sS'x'
F-2.5143683898495683
sg12
(F-2.5143683898495683
F-0.28076882358339256
F-2.7754703894412516
tp675
sS'z'
F-2.7754703894412516
sbsg21
I6
sg22
(lp676
sg24
S'C33'
p677
sg26
g73
sg28
F1
sg29
I0
sg30
I13
sg31
S'TBA:1:A:'
p678
sg33
S'TBA:1:A:???'
p679
sg35
g36
sg37
I13
sg38
S'   14'
p680
sg40
S' C33'
p681
sg42
g78
sg44
g667
sg45
g681
sg46
I1
sg47
I14
sg48
S' '
sS'x'
F-2.5143683898495683
sS'z'
F-2.7754703894412516
sg49
I13
sg50
F20
sg51
I139984369798680
sg52
S''
sg53
S'TBA'
p682
sg55
S'   14'
p683
sg57
I139984369798680
sg58
(lp684
g645
a(ielbow.chemistry.AtomClass
AtomClass
p685
(dp686
g7
(ielbow.chemistry.xyzClass
xyzClass
p687
(dp688
g10
I1
sg11
F57.295779513082323
sS'y'
F-3.847
sS'x'
F3.6120000000000001
sg12
(F3.6120000000000001
F-3.847
F-8.1029999999999998
tp689
sS'z'
F-8.1029999999999998
sbsg14
(ielbow.chemistry.xyzClass
xyzClass
p690
(dp691
g10
I1
sg11
F57.295779513082323
sS'y'
F-0.26708005854841965
sS'x'
F-4.0674844395514622
sg12
(F-4.0674844395514622
F-0.26708005854841965
F-2.7668049282397709
tp692
sS'z'
F-2.7668049282397709
sbsg12
(ielbow.chemistry.xyzClass
xyzClass
p693
(dp694
g10
I1
sg11
F57.295779513082323
sS'y'
F-0.25345664500434861
sS'x'
F-4.0423404115295929
sg12
(F-4.0423404115295929
F-0.25345664500434861
F-2.772938461453561
tp695
sS'z'
F-2.772938461453561
sbsg21
I6
sg22
(lp696
sg24
S'C34'
p697
sg26
g73
sg28
F1
sg29
I0
sg30
I14
sg31
S'TBA:1:A:'
p698
sg33
S'TBA:1:A:???'
p699
sg35
g36
sg37
I14
sg38
S'   15'
p700
sg40
S' C34'
p701
sg42
g139
sg44
g687
sg45
g701
sg46
I1
sg47
I15
sg48
S' '
sS'x'
F-4.0423404115295929
sS'z'
F-2.772938461453561
sg49
I14
sg50
F20
sg51
I139984369798032
sg52
S''
sg53
S'TBA'
p702
sg55
S'   15'
p703
sg57
I139984369798032
sg58
(lp704
g665
a(ielbow.chemistry.AtomClass
AtomClass
p705
(dp706
g7
(ielbow.chemistry.xyzClass
xyzClass
p707
(dp708
g10
I1
sg11
F57.295779513082323
sS'y'
F-4.5700000000000003
sS'x'
F3.9740000000000002
sg12
(F3.9740000000000002
F-4.5700000000000003
F-7.3639999999999999
tp709
sS'z'
F-7.3639999999999999
sbsg14
(ielbow.chemistry.xyzClass
xyzClass
p710
(dp711
g10
I0
sg11
F57.295779513082323
sS'y'
F0.64797340445017104
sS'x'
F-4.3965577824411568
sg12
(F-4.3965577824411568
F0.64797340445017104
F-2.2893677236414196
tp712
sS'z'
F-2.2893677236414196
sbsg12
(ielbow.chemistry.xyzClass
xyzClass
p713
(dp714
g10
I0
sg11
F57.295779513082323
sS'y'
F0.6995439982705246
sS'x'
F-4.3867648824067746
sg12
(F-4.3867648824067746
F0.6995439982705246
F-2.3821272382222762
tp715
sS'z'
F-2.3821272382222762
sbsg21
I1
sg22
(lp716
sg24
S'1H34'
p717
sg26
Nsg28
F1
sg29
I0
sg30
I45
sg31
S'TBA:1:A:'
p718
sg33
S'TBA:1:A:???'
p719
sg35
g36
sg37
I45
sg38
S'   46'
p720
sg40
S'H341'
p721
sg42
g160
sg44
g707
sg45
g721
sg46
I1
sg47
I46
sg48
S' '
sS'x'
F-4.3867648824067746
sS'z'
F-2.3821272382222762
sg49
I45
sg50
F20
sg51
I139984369678960
sg52
S''
sg53
S'TBA'
p722
sg55
S'   46'
p723
sg57
I139984369678960
sg58
(lp724
g685
asg164
I46
sg165
Nsg166
g707
sg167
(lp725
sg169
S'A'
sg170
g721
sg171
S'H'
sg172
S'A'
sg173
g713
sg174
I01
sg175
S''
sg176
S'H'
sg177
F1.0079
sS'y'
F0.6995439982705246
sg178
I0
sba(ielbow.chemistry.AtomClass
AtomClass
p726
(dp727
g7
(ielbow.chemistry.xyzClass
xyzClass
p728
(dp729
g10
I1
sg11
F57.295779513082323
sS'y'
F-3.2090000000000001
sS'x'
F4.4509999999999996
sg12
(F4.4509999999999996
F-3.2090000000000001
F-8.3989999999999991
tp730
sS'z'
F-8.3989999999999991
sbsg14
(ielbow.chemistry.xyzClass
xyzClass
p731
(dp732
g10
I0
sg11
F57.295779513082323
sS'y'
F-0.30025084035370481
sS'x'
F-4.4440616232025523
sg12
(F-4.4440616232025523
F-0.30025084035370481
F-3.7820131401198953
tp733
sS'z'
F-3.7820131401198953
sbsg12
(ielbow.chemistry.xyzClass
xyzClass
p734
(dp735
g10
I0
sg11
F57.295779513082323
sS'y'
F-0.38243055699972428
sS'x'
F-4.4086033102848825
sg12
(F-4.4086033102848825
F-0.38243055699972428
F-3.7879467274553993
tp736
sS'z'
F-3.7879467274553993
sbsg21
I1
sg22
(lp737
sg24
S'2H34'
p738
sg26
Nsg28
F1
sg29
I0
sg30
I46
sg31
S'TBA:1:A:'
p739
sg33
S'TBA:1:A:???'
p740
sg35
g36
sg37
I46
sg38
S'   47'
p741
sg40
S'H342'
p742
sg42
g160
sg44
g728
sg45
g742
sg46
I1
sg47
I47
sg48
S' '
sS'x'
F-4.4086033102848825
sS'z'
F-3.7879467274553993
sg49
I46
sg50
F20
sg51
I139984369679248
sg52
S''
sg53
S'TBA'
p743
sg55
S'   47'
p744
sg57
I139984369679248
sg58
(lp745
g685
asg164
I47
sg165
Nsg166
g728
sg167
(lp746
sg169
S'A'
sg170
g742
sg171
S'H'
sg172
S'A'
sg173
g734
sg174
I01
sg175
S''
sg176
S'H'
sg177
F1.0079
sS'y'
F-0.38243055699972428
sg178
I0
sba(ielbow.chemistry.AtomClass
AtomClass
p747
(dp748
g7
(ielbow.chemistry.xyzClass
xyzClass
p749
(dp750
g10
I1
sg11
F57.295779513082323
sS'y'
F-4.4020000000000001
sS'x'
F3.2789999999999999
sg12
(F3.2789999999999999
F-4.4020000000000001
F-8.9860000000000007
tp751
sS'z'
F-8.9860000000000007
sbsg14
(ielbow.chemistry.xyzClass
xyzClass
p752
(dp753
g10
I0
sg11
F57.295779513082323
sS'y'
F-1.1187810505478335
sS'x'
F-4.4447346148301845
sg12
(F-4.4447346148301845
F-1.1187810505478335
F-2.2137713714275389
tp754
sS'z'
F-2.2137713714275389
sbsg12
(ielbow.chemistry.xyzClass
xyzClass
p755
(dp756
g10
I0
sg11
F57.295779513082323
sS'y'
F-1.0582200938386841
sS'x'
F-4.4177612888831108
sg12
(F-4.4177612888831108
F-1.0582200938386841
F-2.1475638957484984
tp757
sS'z'
F-2.1475638957484984
sbsg21
I1
sg22
(lp758
sg24
S'3H34'
p759
sg26
Nsg28
F1
sg29
I0
sg30
I47
sg31
S'TBA:1:A:'
p760
sg33
S'TBA:1:A:???'
p761
sg35
g36
sg37
I47
sg38
S'   48'
p762
sg40
S'H343'
p763
sg42
g160
sg44
g749
sg45
g763
sg46
I1
sg47
I48
sg48
S' '
sS'x'
F-4.4177612888831108
sS'z'
F-2.1475638957484984
sg49
I47
sg50
F20
sg51
I139984369679536
sg52
S''
sg53
S'TBA'
p764
sg55
S'   48'
p765
sg57
I139984369679536
sg58
(lp766
g685
asg164
I48
sg165
Nsg166
g749
sg167
(lp767
sg169
S'A'
sg170
g763
sg171
S'H'
sg172
S'A'
sg173
g755
sg174
I01
sg175
S''
sg176
S'H'
sg177
F1.0079
sS'y'
F-1.0582200938386841
sg178
I0
sbasg164
I15
sg165
Nsg166
g687
sg167
(lp768
sg169
S'A'
sg170
g701
sg171
S'C'
sg172
S'A'
sg173
g693
sg174
I01
sg175
S''
sg176
S'C'
sg177
F12.010999999999999
sS'y'
F-0.25345664500434861
sg178
I0
sba(ielbow.chemistry.AtomClass
AtomClass
p769
(dp770
g7
(ielbow.chemistry.xyzClass
xyzClass
p771
(dp772
g10
I1
sg11
F57.295779513082323
sS'y'
F-2.3290000000000002
sS'x'
F2.1099999999999999
sg12
(F2.1099999999999999
F-2.3290000000000002
F-8.3140000000000001
tp773
sS'z'
F-8.3140000000000001
sbsg14
(ielbow.chemistry.xyzClass
xyzClass
p774
(dp775
g10
I0
sg11
F57.295779513082323
sS'y'
F0.56753408905150704
sS'x'
F-2.1610210536897467
sg12
(F-2.1610210536897467
F0.56753408905150704
F-3.2991717643982494
tp776
sS'z'
F-3.2991717643982494
sbsg12
(ielbow.chemistry.xyzClass
xyzClass
p777
(dp778
g10
I0
sg11
F57.295779513082323
sS'y'
F0.53582429715014934
sS'x'
F-2.1391355973083579
sg12
(F-2.1391355973083579
F0.53582429715014934
F-3.3831437790028782
tp779
sS'z'
F-3.3831437790028782
sbsg21
I1
sg22
(lp780
sg24
S'1H33'
p781
sg26
Nsg28
F1
sg29
I0
sg30
I43
sg31
S'TBA:1:A:'
p782
sg33
S'TBA:1:A:???'
p783
sg35
g36
sg37
I43
sg38
S'   44'
p784
sg40
S'H331'
p785
sg42
g239
sg44
g771
sg45
g785
sg46
I1
sg47
I44
sg48
S' '
sS'x'
F-2.1391355973083579
sS'z'
F-3.3831437790028782
sg49
I43
sg50
F20
sg51
I139984369678384
sg52
S''
sg53
S'TBA'
p786
sg55
S'   44'
p787
sg57
I139984369678384
sg58
(lp788
g665
asg164
I44
sg165
Nsg166
g771
sg167
(lp789
sg169
S'A'
sg170
g785
sg171
S'H'
sg172
S'A'
sg173
g777
sg174
I01
sg175
S''
sg176
S'H'
sg177
F1.0079
sS'y'
F0.53582429715014934
sg178
I0
sba(ielbow.chemistry.AtomClass
AtomClass
p790
(dp791
g7
(ielbow.chemistry.xyzClass
xyzClass
p792
(dp793
g10
I1
sg11
F57.295779513082323
sS'y'
F-3.681
sS'x'
F1.635
sg12
(F1.635
F-3.681
F-7.2839999999999998
tp794
sS'z'
F-7.2839999999999998
sbsg14
(ielbow.chemistry.xyzClass
xyzClass
p795
(dp796
g10
I0
sg11
F57.295779513082323
sS'y'
F-1.2007506170269595
sS'x'
F-2.2104489836866148
sg12
(F-2.2104489836866148
F-1.2007506170269595
F-3.3092811618353268
tp797
sS'z'
F-3.3092811618353268
sbsg12
(ielbow.chemistry.xyzClass
xyzClass
p798
(dp799
g10
I0
sg11
F57.295779513082323
sS'y'
F-1.2246029285480056
sS'x'
F-2.1701894319856856
sg12
(F-2.1701894319856856
F-1.2246029285480056
F-3.1855176803341152
tp800
sS'z'
F-3.1855176803341152
sbsg21
I1
sg22
(lp801
sg24
S'2H33'
p802
sg26
Nsg28
F1
sg29
I0
sg30
I44
sg31
S'TBA:1:A:'
p803
sg33
S'TBA:1:A:???'
p804
sg35
g36
sg37
I44
sg38
S'   45'
p805
sg40
S'H332'
p806
sg42
g239
sg44
g792
sg45
g806
sg46
I1
sg47
I45
sg48
S' '
sS'x'
F-2.1701894319856856
sS'z'
F-3.1855176803341152
sg49
I44
sg50
F20
sg51
I139984369678672
sg52
S''
sg53
S'TBA'
p807
sg55
S'   45'
p808
sg57
I139984369678672
sg58
(lp809
g665
asg164
I45
sg165
Nsg166
g792
sg167
(lp810
sg169
S'A'
sg170
g806
sg171
S'H'
sg172
S'A'
sg173
g798
sg174
I01
sg175
S''
sg176
S'H'
sg177
F1.0079
sS'y'
F-1.2246029285480056
sg178
I0
sbasg164
I14
sg165
Nsg166
g667
sg167
(lp811
sg169
S'A'
sg170
g681
sg171
S'C'
sg172
S'A'
sg173
g673
sg174
I01
sg175
S''
sg176
S'C'
sg177
F12.010999999999999
sS'y'
F-0.28076882358339256
sg178
I0
sba(ielbow.chemistry.AtomClass
AtomClass
p812
(dp813
g7
(ielbow.chemistry.xyzClass
xyzClass
p814
(dp815
g10
I1
sg11
F57.295779513082323
sS'y'
F-2.9249999999999998
sS'x'
F3.2429999999999999
sg12
(F3.2429999999999999
F-2.9249999999999998
F-5.5270000000000001
tp816
sS'z'
F-5.5270000000000001
sbsg14
(ielbow.chemistry.xyzClass
xyzClass
p817
(dp818
g10
I0
sg11
F57.295779513082323
sS'y'
F0.48112009840185577
sS'x'
F-2.4511449538589667
sg12
(F-2.4511449538589667
F0.48112009840185577
F-0.78920163212702055
tp819
sS'z'
F-0.78920163212702055
sbsg12
(ielbow.chemistry.xyzClass
xyzClass
p820
(dp821
g10
I0
sg11
F57.295779513082323
sS'y'
F0.83291448161941761
sS'x'
F-2.3067650691490291
sg12
(F-2.3067650691490291
F0.83291448161941761
F-0.94927862348287606
tp822
sS'z'
F-0.94927862348287606
sbsg21
I1
sg22
(lp823
sg24
S'1H32'
p824
sg26
Nsg28
F1
sg29
I0
sg30
I27
sg31
S'TBA:1:A:'
p825
sg33
S'TBA:1:A:???'
p826
sg35
g36
sg37
I27
sg38
S'   28'
p827
sg40
S'H321'
p828
sg42
g239
sg44
g814
sg45
g828
sg46
I1
sg47
I28
sg48
S' '
sS'x'
F-2.3067650691490291
sS'z'
F-0.94927862348287606
sg49
I27
sg50
F20
sg51
I139984369577064
sg52
S''
sg53
S'TBA'
p829
sg55
S'   28'
p830
sg57
I139984369577064
sg58
(lp831
g645
asg164
I28
sg165
Nsg166
g814
sg167
(lp832
sg169
S'A'
sg170
g828
sg171
S'H'
sg172
S'A'
sg173
g820
sg174
I01
sg175
S''
sg176
S'H'
sg177
F1.0079
sS'y'
F0.83291448161941761
sg178
I0
sba(ielbow.chemistry.AtomClass
AtomClass
p833
(dp834
g7
(ielbow.chemistry.xyzClass
xyzClass
p835
(dp836
g10
I1
sg11
F57.295779513082323
sS'y'
F-1.591
sS'x'
F3.7589999999999999
sg12
(F3.7589999999999999
F-1.591
F-6.5590000000000002
tp837
sS'z'
F-6.5590000000000002
sbsg14
(ielbow.chemistry.xyzClass
xyzClass
p838
(dp839
g10
I0
sg11
F57.295779513082323
sS'y'
F-1.2758107811842367
sS'x'
F-2.2680873345059491
sg12
(F-2.2680873345059491
F-1.2758107811842367
F-0.88502294524565239
tp840
sS'z'
F-0.88502294524565239
sbsg12
(ielbow.chemistry.xyzClass
xyzClass
p841
(dp842
g10
I0
sg11
F57.295779513082323
sS'y'
F-0.92089594732984947
sS'x'
F-2.4094790215008617
sg12
(F-2.4094790215008617
F-0.92089594732984947
F-0.7263597820333404
tp843
sS'z'
F-0.7263597820333404
sbsg21
I1
sg22
(lp844
sg24
S'2H32'
p845
sg26
Nsg28
F1
sg29
I0
sg30
I28
sg31
S'TBA:1:A:'
p846
sg33
S'TBA:1:A:???'
p847
sg35
g36
sg37
I28
sg38
S'   29'
p848
sg40
S'H322'
p849
sg42
g239
sg44
g835
sg45
g849
sg46
I1
sg47
I29
sg48
S' '
sS'x'
F-2.4094790215008617
sS'z'
F-0.7263597820333404
sg49
I28
sg50
F20
sg51
I139984369576920
sg52
S''
sg53
S'TBA'
p850
sg55
S'   29'
p851
sg57
I139984369576920
sg58
(lp852
g645
asg164
I29
sg165
Nsg166
g835
sg167
(lp853
sg169
S'A'
sg170
g849
sg171
S'H'
sg172
S'A'
sg173
g841
sg174
I01
sg175
S''
sg176
S'H'
sg177
F1.0079
sS'y'
F-0.92089594732984947
sg178
I0
sbasg164
I7
sg165
Nsg166
g647
sg167
(lp854
sg169
S'A'
sg170
g661
sg171
S'C'
sg172
S'A'
sg173
g653
sg174
I01
sg175
S''
sg176
S'C'
sg177
F12.010999999999999
sS'y'
F-0.12907665986150946
sg178
I0
sba(ielbow.chemistry.AtomClass
AtomClass
p855
(dp856
g7
(ielbow.chemistry.xyzClass
xyzClass
p857
(dp858
g10
I1
sg11
F57.295779513082323
sS'y'
F-0.65200000000000002
sS'x'
F1.411
sg12
(F1.411
F-0.65200000000000002
F-6.5140000000000002
tp859
sS'z'
F-6.5140000000000002
sbsg14
(ielbow.chemistry.xyzClass
xyzClass
p860
(dp861
g10
I0
sg11
F57.295779513082323
sS'y'
F0.69496426355405161
sS'x'
F-0.22068987289999092
sg12
(F-0.22068987289999092
F0.69496426355405161
F-1.9573557933463444
tp862
sS'z'
F-1.9573557933463444
sbsg12
(ielbow.chemistry.xyzClass
xyzClass
p863
(dp864
g10
I0
sg11
F57.295779513082323
sS'y'
F0.54333084991443259
sS'x'
F-0.063944551240910572
sg12
(F-0.063944551240910572
F0.54333084991443259
F-1.9944205905554548
tp865
sS'z'
F-1.9944205905554548
sbsg21
I1
sg22
(lp866
sg24
S'1H31'
p867
sg26
Nsg28
F1
sg29
I0
sg30
I25
sg31
S'TBA:1:A:'
p868
sg33
S'TBA:1:A:???'
p869
sg35
g36
sg37
I25
sg38
S'   26'
p870
sg40
S'H311'
p871
sg42
g239
sg44
g857
sg45
g871
sg46
I1
sg47
I26
sg48
S' '
sS'x'
F-0.063944551240910572
sS'z'
F-1.9944205905554548
sg49
I25
sg50
F20
sg51
I139984369797744
sg52
S''
sg53
S'TBA'
p872
sg55
S'   26'
p873
sg57
I139984369797744
sg58
(lp874
g625
asg164
I26
sg165
Nsg166
g857
sg167
(lp875
sg169
S'A'
sg170
g871
sg171
S'H'
sg172
S'A'
sg173
g863
sg174
I01
sg175
S''
sg176
S'H'
sg177
F1.0079
sS'y'
F0.54333084991443259
sg178
I0
sba(ielbow.chemistry.AtomClass
AtomClass
p876
(dp877
g7
(ielbow.chemistry.xyzClass
xyzClass
p878
(dp879
g10
I1
sg11
F57.295779513082323
sS'y'
F-1.9850000000000001
sS'x'
F0.92300000000000004
sg12
(F0.92300000000000004
F-1.9850000000000001
F-5.4249999999999998
tp880
sS'z'
F-5.4249999999999998
sbsg14
(ielbow.chemistry.xyzClass
xyzClass
p881
(dp882
g10
I0
sg11
F57.295779513082323
sS'y'
F-1.0572424379003968
sS'x'
F-0.035484469367917493
sg12
(F-0.035484469367917493
F-1.0572424379003968
F-1.8010826288571915
tp883
sS'z'
F-1.8010826288571915
sbsg12
(ielbow.chemistry.xyzClass
xyzClass
p884
(dp885
g10
I0
sg11
F57.295779513082323
sS'y'
F-1.1970066844613043
sS'x'
F-0.16630513107293951
sg12
(F-0.16630513107293951
F-1.1970066844613043
F-1.6886665988520209
tp886
sS'z'
F-1.6886665988520209
sbsg21
I1
sg22
(lp887
sg24
S'2H31'
p888
sg26
Nsg28
F1
sg29
I0
sg30
I26
sg31
S'TBA:1:A:'
p889
sg33
S'TBA:1:A:???'
p890
sg35
g36
sg37
I26
sg38
S'   27'
p891
sg40
S'H312'
p892
sg42
g239
sg44
g878
sg45
g892
sg46
I1
sg47
I27
sg48
S' '
sS'x'
F-0.16630513107293951
sS'z'
F-1.6886665988520209
sg49
I26
sg50
F20
sg51
I139984369795944
sg52
S''
sg53
S'TBA'
p893
sg55
S'   27'
p894
sg57
I139984369795944
sg58
(lp895
g625
asg164
I27
sg165
Nsg166
g878
sg167
(lp896
sg169
S'A'
sg170
g892
sg171
S'H'
sg172
S'A'
sg173
g884
sg174
I01
sg175
S''
sg176
S'H'
sg177
F1.0079
sS'y'
F-1.1970066844613043
sg178
I0
sbasg164
I6
sg165
Nsg166
g627
sg167
(lp897
sg169
S'A'
sg170
g641
sg171
S'C'
sg172
S'A'
sg173
g633
sg174
I01
sg175
S''
sg176
S'C'
sg177
F12.010999999999999
sS'y'
F-0.21790419365291888
sg178
I0
sba(ielbow.chemistry.AtomClass
AtomClass
p898
(dp899
g7
(ielbow.chemistry.xyzClass
xyzClass
p900
(dp901
g10
I1
sg11
F57.295779513082323
sS'y'
F-1.5609999999999999
sS'x'
F2.7679999999999998
sg12
(F2.7679999999999998
F-1.5609999999999999
F-3.5070000000000001
tp902
sS'z'
F-3.5070000000000001
sbsg14
(ielbow.chemistry.xyzClass
xyzClass
p903
(dp904
g10
I1
sg11
F57.295779513082323
sS'y'
F1.269675654485215
sS'x'
F-0.48701902655390977
sg12
(F-0.48701902655390977
F1.269675654485215
F0.53266356699793949
tp905
sS'z'
F0.53266356699793949
sbsg12
(ielbow.chemistry.xyzClass
xyzClass
p906
(dp907
g10
I1
sg11
F57.295779513082323
sS'y'
F1.2382902709782695
sS'x'
F-0.51506880482239148
sg12
(F-0.51506880482239148
F1.2382902709782695
F0.5428234914609652
tp908
sS'z'
F0.5428234914609652
sbsg21
I6
sg22
(lp909
sg24
S'C41'
p910
sg26
g73
sg28
F1
sg29
I0
sg30
I7
sg31
S'TBA:1:A:'
p911
sg33
S'TBA:1:A:???'
p912
sg35
g36
sg37
I7
sg38
S'    8'
p913
sg40
S' C41'
p914
sg42
g78
sg44
g900
sg45
g914
sg46
I1
sg47
I8
sg48
S' '
sS'x'
F-0.51506880482239148
sS'z'
F0.5428234914609652
sg49
I7
sg50
F20
sg51
I139984369572320
sg52
S''
sg53
S'TBA'
p915
sg55
S'    8'
p916
sg57
I139984369572320
sg58
(lp917
g5
a(ielbow.chemistry.AtomClass
AtomClass
p918
(dp919
g7
(ielbow.chemistry.xyzClass
xyzClass
p920
(dp921
g10
I1
sg11
F57.295779513082323
sS'y'
F-2.4550000000000001
sS'x'
F1.617
sg12
(F1.617
F-2.4550000000000001
F-3.0670000000000002
tp922
sS'z'
F-3.0670000000000002
sbsg14
(ielbow.chemistry.xyzClass
xyzClass
p923
(dp924
g10
I1
sg11
F57.295779513082323
sS'y'
F2.415642104447203
sS'x'
F-0.0034570581271865519
sg12
(F-0.0034570581271865519
F2.415642104447203
F-0.35827208828535828
tp925
sS'z'
F-0.35827208828535828
sbsg12
(ielbow.chemistry.xyzClass
xyzClass
p926
(dp927
g10
I1
sg11
F57.295779513082323
sS'y'
F2.3952675523167257
sS'x'
F-0.11262574902553125
sg12
(F-0.11262574902553125
F2.3952675523167257
F-0.37402982709774141
tp928
sS'z'
F-0.37402982709774141
sbsg21
I6
sg22
(lp929
sg24
S'C42'
p930
sg26
g73
sg28
F1
sg29
I0
sg30
I8
sg31
S'TBA:1:A:'
p931
sg33
S'TBA:1:A:???'
p932
sg35
g36
sg37
I8
sg38
S'    9'
p933
sg40
S' C42'
p934
sg42
g78
sg44
g920
sg45
g934
sg46
I1
sg47
I9
sg48
S' '
sS'x'
F-0.11262574902553125
sS'z'
F-0.37402982709774141
sg49
I8
sg50
F20
sg51
I139984369798536
sg52
S''
sg53
S'TBA'
p935
sg55
S'    9'
p936
sg57
I139984369798536
sg58
(lp937
g898
a(ielbow.chemistry.AtomClass
AtomClass
p938
(dp939
g7
(ielbow.chemistry.xyzClass
xyzClass
p940
(dp941
g10
I1
sg11
F57.295779513082323
sS'y'
F-3.4300000000000002
sS'x'
F2.0659999999999998
sg12
(F2.0659999999999998
F-3.4300000000000002
F-1.9790000000000001
tp942
sS'z'
F-1.9790000000000001
sbsg14
(ielbow.chemistry.xyzClass
xyzClass
p943
(dp944
g10
I1
sg11
F57.295779513082323
sS'y'
F3.7492612120824527
sS'x'
F-0.41358418995965218
sg12
(F-0.41358418995965218
F3.7492612120824527
F0.26097987225353492
tp945
sS'z'
F0.26097987225353492
sbsg12
(ielbow.chemistry.xyzClass
xyzClass
p946
(dp947
g10
I1
sg11
F57.295779513082323
sS'y'
F3.7236890181626863
sS'x'
F-0.43875913190890181
sg12
(F-0.43875913190890181
F3.7236890181626863
F0.30860032244803509
tp948
sS'z'
F0.30860032244803509
sbsg21
I6
sg22
(lp949
sg24
S'C43'
p950
sg26
g73
sg28
F1
sg29
I0
sg30
I15
sg31
S'TBA:1:A:'
p951
sg33
S'TBA:1:A:???'
p952
sg35
g36
sg37
I15
sg38
S'   16'
p953
sg40
S' C43'
p954
sg42
g78
sg44
g940
sg45
g954
sg46
I1
sg47
I16
sg48
S' '
sS'x'
F-0.43875913190890181
sS'z'
F0.30860032244803509
sg49
I15
sg50
F20
sg51
I139984369798824
sg52
S''
sg53
S'TBA'
p955
sg55
S'   16'
p956
sg57
I139984369798824
sg58
(lp957
g918
a(ielbow.chemistry.AtomClass
AtomClass
p958
(dp959
g7
(ielbow.chemistry.xyzClass
xyzClass
p960
(dp961
g10
I1
sg11
F57.295779513082323
sS'y'
F-4.3040000000000003
sS'x'
F0.91500000000000004
sg12
(F0.91500000000000004
F-4.3040000000000003
F-1.506
tp962
sS'z'
F-1.506
sbsg14
(ielbow.chemistry.xyzClass
xyzClass
p963
(dp964
g10
I1
sg11
F57.295779513082323
sS'y'
F4.8951882722313727
sS'x'
F0.11790986421914718
sg12
(F0.11790986421914718
F4.8951882722313727
F-0.59896495216518852
tp965
sS'z'
F-0.59896495216518852
sbsg12
(ielbow.chemistry.xyzClass
xyzClass
p966
(dp967
g10
I1
sg11
F57.295779513082323
sS'y'
F4.8784151908353914
sS'x'
F0.053736359858586158
sg12
(F0.053736359858586158
F4.8784151908353914
F-0.5623585117154517
tp968
sS'z'
F-0.5623585117154517
sbsg21
I6
sg22
(lp969
sg24
S'C44'
p970
sg26
g73
sg28
F1
sg29
I0
sg30
I16
sg31
S'TBA:1:A:'
p971
sg33
S'TBA:1:A:???'
p972
sg35
g36
sg37
I16
sg38
S'   17'
p973
sg40
S' C44'
p974
sg42
g139
sg44
g960
sg45
g974
sg46
I1
sg47
I17
sg48
S' '
sS'x'
F0.053736359858586158
sS'z'
F-0.5623585117154517
sg49
I16
sg50
F20
sg51
I139984369798248
sg52
S''
sg53
S'TBA'
p975
sg55
S'   17'
p976
sg57
I139984369798248
sg58
(lp977
g938
a(ielbow.chemistry.AtomClass
AtomClass
p978
(dp979
g7
(ielbow.chemistry.xyzClass
xyzClass
p980
(dp981
g10
I1
sg11
F57.295779513082323
sS'y'
F-4.8979999999999997
sS'x'
F0.50800000000000001
sg12
(F0.50800000000000001
F-4.8979999999999997
F-2.331
tp982
sS'z'
F-2.331
sbsg14
(ielbow.chemistry.xyzClass
xyzClass
p983
(dp984
g10
I1
sg11
F57.295779513082323
sS'y'
F5.841385447052124
sS'x'
F-0.18375253307875963
sg12
(F-0.18375253307875963
F5.841385447052124
F-0.16621895981088886
tp985
sS'z'
F-0.16621895981088886
sbsg12
(ielbow.chemistry.xyzClass
xyzClass
p986
(dp987
g10
I0
sg11
F57.295779513082323
sS'y'
F5.8170038756058817
sS'x'
F-0.32485892970427849
sg12
(F-0.32485892970427849
F5.8170038756058817
F-0.16725744378201277
tp988
sS'z'
F-0.16725744378201277
sbsg21
I1
sg22
(lp989
sg24
S'1H44'
p990
sg26
Nsg28
F1
sg29
I0
sg30
I50
sg31
S'TBA:1:A:'
p991
sg33
S'TBA:1:A:???'
p992
sg35
g36
sg37
I50
sg38
S'   51'
p993
sg40
S'H441'
p994
sg42
g160
sg44
g980
sg45
g994
sg46
I1
sg47
I51
sg48
S' '
sS'x'
F-0.32485892970427849
sS'z'
F-0.16725744378201277
sg49
I50
sg50
F20
sg51
I139984369684560
sg52
S''
sg53
S'TBA'
p995
sg55
S'   51'
p996
sg57
I139984369684560
sg58
(lp997
g958
asg164
I51
sg165
Nsg166
g980
sg167
(lp998
sg169
S'A'
sg170
g994
sg171
S'H'
sg172
S'A'
sg173
g986
sg174
I01
sg175
S''
sg176
S'H'
sg177
F1.0079
sS'y'
F5.8170038756058817
sg178
I0
sba(ielbow.chemistry.AtomClass
AtomClass
p999
(dp1000
g7
(ielbow.chemistry.xyzClass
xyzClass
p1001
(dp1002
g10
I1
sg11
F57.295779513082323
sS'y'
F-3.6960000000000002
sS'x'
F0.107
sg12
(F0.107
F-3.6960000000000002
F-1.087
tp1003
sS'z'
F-1.087
sbsg14
(ielbow.chemistry.xyzClass
xyzClass
p1004
(dp1005
g10
I1
sg11
F57.295779513082323
sS'y'
F4.8116754277246772
sS'x'
F-0.285027529106612
sg12
(F-0.285027529106612
F4.8116754277246772
F-1.601075450734704
tp1006
sS'z'
F-1.601075450734704
sbsg12
(ielbow.chemistry.xyzClass
xyzClass
p1007
(dp1008
g10
I0
sg11
F57.295779513082323
sS'y'
F4.743119124174088
sS'x'
F-0.30362235697083045
sg12
(F-0.30362235697083045
F4.743119124174088
F-1.5787451273750386
tp1009
sS'z'
F-1.5787451273750386
sbsg21
I1
sg22
(lp1010
sg24
S'2H44'
p1011
sg26
Nsg28
F1
sg29
I0
sg30
I51
sg31
S'TBA:1:A:'
p1012
sg33
S'TBA:1:A:???'
p1013
sg35
g36
sg37
I51
sg38
S'   52'
p1014
sg40
S'H442'
p1015
sg42
g160
sg44
g1001
sg45
g1015
sg46
I1
sg47
I52
sg48
S' '
sS'x'
F-0.30362235697083045
sS'z'
F-1.5787451273750386
sg49
I51
sg50
F20
sg51
I139984369684848
sg52
S''
sg53
S'TBA'
p1016
sg55
S'   52'
p1017
sg57
I139984369684848
sg58
(lp1018
g958
asg164
I52
sg165
Nsg166
g1001
sg167
(lp1019
sg169
S'A'
sg170
g1015
sg171
S'H'
sg172
S'A'
sg173
g1007
sg174
I01
sg175
S''
sg176
S'H'
sg177
F1.0079
sS'y'
F4.743119124174088
sg178
I0
sba(ielbow.chemistry.AtomClass
AtomClass
p1020
(dp1021
g7
(ielbow.chemistry.xyzClass
xyzClass
p1022
(dp1023
g10
I1
sg11
F57.295779513082323
sS'y'
F-4.9939999999999998
sS'x'
F1.2589999999999999
sg12
(F1.2589999999999999
F-4.9939999999999998
F-0.72799999999999998
tp1024
sS'z'
F-0.72799999999999998
sbsg14
(ielbow.chemistry.xyzClass
xyzClass
p1025
(dp1026
g10
I1
sg11
F57.295779513082323
sS'y'
F4.8450114972624423
sS'x'
F1.1993059575019001
sg12
(F1.1993059575019001
F4.8450114972624423
F-0.63925353823514963
tp1027
sS'z'
F-0.63925353823514963
sbsg12
(ielbow.chemistry.xyzClass
xyzClass
p1028
(dp1029
g10
I0
sg11
F57.295779513082323
sS'y'
F4.8962862473093587
sS'x'
F1.1396910525427351
sg12
(F1.1396910525427351
F4.8962862473093587
F-0.55976932841146776
tp1030
sS'z'
F-0.55976932841146776
sbsg21
I1
sg22
(lp1031
sg24
S'3H44'
p1032
sg26
Nsg28
F1
sg29
I0
sg30
I52
sg31
S'TBA:1:A:'
p1033
sg33
S'TBA:1:A:???'
p1034
sg35
g36
sg37
I52
sg38
S'   53'
p1035
sg40
S'H443'
p1036
sg42
g160
sg44
g1022
sg45
g1036
sg46
I1
sg47
I53
sg48
S' '
sS'x'
F1.1396910525427351
sS'z'
F-0.55976932841146776
sg49
I52
sg50
F20
sg51
I139984369685136
sg52
S''
sg53
S'TBA'
p1037
sg55
S'   53'
p1038
sg57
I139984369685136
sg58
(lp1039
g958
asg164
I53
sg165
Nsg166
g1022
sg167
(lp1040
sg169
S'A'
sg170
g1036
sg171
S'H'
sg172
S'A'
sg173
g1028
sg174
I01
sg175
S''
sg176
S'H'
sg177
F1.0079
sS'y'
F4.8962862473093587
sg178
I0
sbasg164
I17
sg165
Nsg166
g960
sg167
(lp1041
sg169
S'A'
sg170
g974
sg171
S'C'
sg172
S'A'
sg173
g966
sg174
I01
sg175
S''
sg176
S'C'
sg177
F12.010999999999999
sS'y'
F4.8784151908353914
sg178
I0
sba(ielbow.chemistry.AtomClass
AtomClass
p1042
(dp1043
g7
(ielbow.chemistry.xyzClass
xyzClass
p1044
(dp1045
g10
I1
sg11
F57.295779513082323
sS'y'
F-2.875
sS'x'
F2.4710000000000001
sg12
(F2.4710000000000001
F-2.875
F-1.125
tp1046
sS'z'
F-1.125
sbsg14
(ielbow.chemistry.xyzClass
xyzClass
p1047
(dp1048
g10
I1
sg11
F57.295779513082323
sS'y'
F3.8068716287584334
sS'x'
F-1.4941813962943165
sg12
(F-1.4941813962943165
F3.8068716287584334
F0.31146855448172162
tp1049
sS'z'
F0.31146855448172162
sbsg12
(ielbow.chemistry.xyzClass
xyzClass
p1050
(dp1051
g10
I0
sg11
F57.295779513082323
sS'y'
F3.8060795323739192
sS'x'
F-1.5116551199429837
sg12
(F-1.5116551199429837
F3.8060795323739192
F0.4453388471113453
tp1052
sS'z'
F0.4453388471113453
sbsg21
I1
sg22
(lp1053
sg24
S'1H43'
p1054
sg26
Nsg28
F1
sg29
I0
sg30
I48
sg31
S'TBA:1:A:'
p1055
sg33
S'TBA:1:A:???'
p1056
sg35
g36
sg37
I48
sg38
S'   49'
p1057
sg40
S'H431'
p1058
sg42
g239
sg44
g1044
sg45
g1058
sg46
I1
sg47
I49
sg48
S' '
sS'x'
F-1.5116551199429837
sS'z'
F0.4453388471113453
sg49
I48
sg50
F20
sg51
I139984369679824
sg52
S''
sg53
S'TBA'
p1059
sg55
S'   49'
p1060
sg57
I139984369679824
sg58
(lp1061
g938
asg164
I49
sg165
Nsg166
g1044
sg167
(lp1062
sg169
S'A'
sg170
g1058
sg171
S'H'
sg172
S'A'
sg173
g1050
sg174
I01
sg175
S''
sg176
S'H'
sg177
F1.0079
sS'y'
F3.8060795323739192
sg178
I0
sba(ielbow.chemistry.AtomClass
AtomClass
p1063
(dp1064
g7
(ielbow.chemistry.xyzClass
xyzClass
p1065
(dp1066
g10
I1
sg11
F57.295779513082323
sS'y'
F-4.0700000000000003
sS'x'
F2.8700000000000001
sg12
(F2.8700000000000001
F-4.0700000000000003
F-2.3610000000000002
tp1067
sS'z'
F-2.3610000000000002
sbsg14
(ielbow.chemistry.xyzClass
xyzClass
p1068
(dp1069
g10
I1
sg11
F57.295779513082323
sS'y'
F3.8258310163910423
sS'x'
F-0.00089065494162532399
sg12
(F-0.00089065494162532399
F3.8258310163910423
F1.2596687631016654
tp1070
sS'z'
F1.2596687631016654
sbsg12
(ielbow.chemistry.xyzClass
xyzClass
p1071
(dp1072
g10
I0
sg11
F57.295779513082323
sS'y'
F3.7641184949467914
sS'x'
F0.052900212670579941
sg12
(F0.052900212670579941
F3.7641184949467914
F1.2743208134926818
tp1073
sS'z'
F1.2743208134926818
sbsg21
I1
sg22
(lp1074
sg24
S'2H43'
p1075
sg26
Nsg28
F1
sg29
I0
sg30
I49
sg31
S'TBA:1:A:'
p1076
sg33
S'TBA:1:A:???'
p1077
sg35
g36
sg37
I49
sg38
S'   50'
p1078
sg40
S'H432'
p1079
sg42
g239
sg44
g1065
sg45
g1079
sg46
I1
sg47
I50
sg48
S' '
sS'x'
F0.052900212670579941
sS'z'
F1.2743208134926818
sg49
I49
sg50
F20
sg51
I139984369680112
sg52
S''
sg53
S'TBA'
p1080
sg55
S'   50'
p1081
sg57
I139984369680112
sg58
(lp1082
g938
asg164
I50
sg165
Nsg166
g1065
sg167
(lp1083
sg169
S'A'
sg170
g1079
sg171
S'H'
sg172
S'A'
sg173
g1071
sg174
I01
sg175
S''
sg176
S'H'
sg177
F1.0079
sS'y'
F3.7641184949467914
sg178
I0
sbasg164
I16
sg165
Nsg166
g940
sg167
(lp1084
sg169
S'A'
sg170
g954
sg171
S'C'
sg172
S'A'
sg173
g946
sg174
I01
sg175
S''
sg176
S'C'
sg177
F12.010999999999999
sS'y'
F3.7236890181626863
sg178
I0
sba(ielbow.chemistry.AtomClass
AtomClass
p1085
(dp1086
g7
(ielbow.chemistry.xyzClass
xyzClass
p1087
(dp1088
g10
I1
sg11
F57.295779513082323
sS'y'
F-3.016
sS'x'
F1.232
sg12
(F1.232
F-3.016
F-3.927
tp1089
sS'z'
F-3.927
sbsg14
(ielbow.chemistry.xyzClass
xyzClass
p1090
(dp1091
g10
I1
sg11
F57.295779513082323
sS'y'
F2.3217610649610929
sS'x'
F-0.44908816846507538
sg12
(F-0.44908816846507538
F2.3217610649610929
F-1.3412052769635245
tp1092
sS'z'
F-1.3412052769635245
sbsg12
(ielbow.chemistry.xyzClass
xyzClass
p1093
(dp1094
g10
I0
sg11
F57.295779513082323
sS'y'
F2.3243486502119262
sS'x'
F-0.66054366329287728
sg12
(F-0.66054366329287728
F2.3243486502119262
F-1.3073581128938079
tp1095
sS'z'
F-1.3073581128938079
sbsg21
I1
sg22
(lp1096
sg24
S'1H42'
p1097
sg26
Nsg28
F1
sg29
I0
sg30
I31
sg31
S'TBA:1:A:'
p1098
sg33
S'TBA:1:A:???'
p1099
sg35
g36
sg37
I31
sg38
S'   32'
p1100
sg40
S'H421'
p1101
sg42
g239
sg44
g1087
sg45
g1101
sg46
I1
sg47
I32
sg48
S' '
sS'x'
F-0.66054366329287728
sS'z'
F-1.3073581128938079
sg49
I31
sg50
F20
sg51
I139984369577640
sg52
S''
sg53
S'TBA'
p1102
sg55
S'   32'
p1103
sg57
I139984369577640
sg58
(lp1104
g918
asg164
I32
sg165
Nsg166
g1087
sg167
(lp1105
sg169
S'A'
sg170
g1101
sg171
S'H'
sg172
S'A'
sg173
g1093
sg174
I01
sg175
S''
sg176
S'H'
sg177
F1.0079
sS'y'
F2.3243486502119262
sg178
I0
sba(ielbow.chemistry.AtomClass
AtomClass
p1106
(dp1107
g7
(ielbow.chemistry.xyzClass
xyzClass
p1108
(dp1109
g10
I1
sg11
F57.295779513082323
sS'y'
F-1.839
sS'x'
F0.79100000000000004
sg12
(F0.79100000000000004
F-1.839
F-2.6899999999999999
tp1110
sS'z'
F-2.6899999999999999
sbsg14
(ielbow.chemistry.xyzClass
xyzClass
p1111
(dp1112
g10
I1
sg11
F57.295779513082323
sS'y'
F2.3747478386443692
sS'x'
F1.0755532104614351
sg12
(F1.0755532104614351
F2.3747478386443692
F-0.4455812446537385
tp1113
sS'z'
F-0.4455812446537385
sbsg12
(ielbow.chemistry.xyzClass
xyzClass
p1114
(dp1115
g10
I0
sg11
F57.295779513082323
sS'y'
F2.3439228728898001
sS'x'
F0.95104896194100952
sg12
(F0.95104896194100952
F2.3439228728898001
F-0.57475449340030171
tp1116
sS'z'
F-0.57475449340030171
sbsg21
I1
sg22
(lp1117
sg24
S'2H42'
p1118
sg26
Nsg28
F1
sg29
I0
sg30
I32
sg31
S'TBA:1:A:'
p1119
sg33
S'TBA:1:A:???'
p1120
sg35
g36
sg37
I32
sg38
S'   33'
p1121
sg40
S'H422'
p1122
sg42
g239
sg44
g1108
sg45
g1122
sg46
I1
sg47
I33
sg48
S' '
sS'x'
F0.95104896194100952
sS'z'
F-0.57475449340030171
sg49
I32
sg50
F20
sg51
I139984369577784
sg52
S''
sg53
S'TBA'
p1123
sg55
S'   33'
p1124
sg57
I139984369577784
sg58
(lp1125
g918
asg164
I33
sg165
Nsg166
g1108
sg167
(lp1126
sg169
S'A'
sg170
g1122
sg171
S'H'
sg172
S'A'
sg173
g1114
sg174
I01
sg175
S''
sg176
S'H'
sg177
F1.0079
sS'y'
F2.3439228728898001
sg178
I0
sbasg164
I9
sg165
Nsg166
g920
sg167
(lp1127
sg169
S'A'
sg170
g934
sg171
S'C'
sg172
S'A'
sg173
g926
sg174
I01
sg175
S''
sg176
S'C'
sg177
F12.010999999999999
sS'y'
F2.3952675523167257
sg178
I0
sba(ielbow.chemistry.AtomClass
AtomClass
p1128
(dp1129
g7
(ielbow.chemistry.xyzClass
xyzClass
p1130
(dp1131
g10
I1
sg11
F57.295779513082323
sS'y'
F-0.96699999999999997
sS'x'
F3.165
sg12
(F3.165
F-0.96699999999999997
F-2.6789999999999998
tp1132
sS'z'
F-2.6789999999999998
sbsg14
(ielbow.chemistry.xyzClass
xyzClass
p1133
(dp1134
g10
I1
sg11
F57.295779513082323
sS'y'
F1.4089552877793183
sS'x'
F-0.10767205839795718
sg12
(F-0.10767205839795718
F1.4089552877793183
F1.5377782126883437
tp1135
sS'z'
F1.5377782126883437
sbsg12
(ielbow.chemistry.xyzClass
xyzClass
p1136
(dp1137
g10
I0
sg11
F57.295779513082323
sS'y'
F1.4108278498082105
sS'x'
F-0.11937085896309092
sg12
(F-0.11937085896309092
F1.4108278498082105
F1.5370894407285862
tp1138
sS'z'
F1.5370894407285862
sbsg21
I1
sg22
(lp1139
sg24
S'1H41'
p1140
sg26
Nsg28
F1
sg29
I0
sg30
I29
sg31
S'TBA:1:A:'
p1141
sg33
S'TBA:1:A:???'
p1142
sg35
g36
sg37
I29
sg38
S'   30'
p1143
sg40
S'H411'
p1144
sg42
g239
sg44
g1130
sg45
g1144
sg46
I1
sg47
I30
sg48
S' '
sS'x'
F-0.11937085896309092
sS'z'
F1.5370894407285862
sg49
I29
sg50
F20
sg51
I139984369577352
sg52
S''
sg53
S'TBA'
p1145
sg55
S'   30'
p1146
sg57
I139984369577352
sg58
(lp1147
g898
asg164
I30
sg165
Nsg166
g1130
sg167
(lp1148
sg169
S'A'
sg170
g1144
sg171
S'H'
sg172
S'A'
sg173
g1136
sg174
I01
sg175
S''
sg176
S'H'
sg177
F1.0079
sS'y'
F1.4108278498082105
sg178
I0
sba(ielbow.chemistry.AtomClass
AtomClass
p1149
(dp1150
g7
(ielbow.chemistry.xyzClass
xyzClass
p1151
(dp1152
g10
I1
sg11
F57.295779513082323
sS'y'
F-2.133
sS'x'
F3.5760000000000001
sg12
(F3.5760000000000001
F-2.133
F-3.972
tp1153
sS'z'
F-3.972
sbsg14
(ielbow.chemistry.xyzClass
xyzClass
p1154
(dp1155
g10
I1
sg11
F57.295779513082323
sS'y'
F1.2609054714360182
sS'x'
F-1.570090075694919
sg12
(F-1.570090075694919
F1.2609054714360182
F0.55360577038911629
tp1156
sS'z'
F0.55360577038911629
sbsg12
(ielbow.chemistry.xyzClass
xyzClass
p1157
(dp1158
g10
I0
sg11
F57.295779513082323
sS'y'
F1.1740852807476538
sS'x'
F-1.5963072289053626
sg12
(F-1.5963072289053626
F1.1740852807476538
F0.59034258163006137
tp1159
sS'z'
F0.59034258163006137
sbsg21
I1
sg22
(lp1160
sg24
S'2H41'
p1161
sg26
Nsg28
F1
sg29
I0
sg30
I30
sg31
S'TBA:1:A:'
p1162
sg33
S'TBA:1:A:???'
p1163
sg35
g36
sg37
I30
sg38
S'   31'
p1164
sg40
S'H412'
p1165
sg42
g239
sg44
g1151
sg45
g1165
sg46
I1
sg47
I31
sg48
S' '
sS'x'
F-1.5963072289053626
sS'z'
F0.59034258163006137
sg49
I30
sg50
F20
sg51
I139984369577496
sg52
S''
sg53
S'TBA'
p1166
sg55
S'   31'
p1167
sg57
I139984369577496
sg58
(lp1168
g898
asg164
I31
sg165
Nsg166
g1151
sg167
(lp1169
sg169
S'A'
sg170
g1165
sg171
S'H'
sg172
S'A'
sg173
g1157
sg174
I01
sg175
S''
sg176
S'H'
sg177
F1.0079
sS'y'
F1.1740852807476538
sg178
I0
sbasg164
I8
sg165
Nsg166
g900
sg167
(lp1170
sg169
S'A'
sg170
g914
sg171
S'C'
sg172
S'A'
sg173
g906
sg174
I01
sg175
S''
sg176
S'C'
sg177
F12.010999999999999
sS'y'
F1.2382902709782695
sg178
I0
sbasg164
I1
sg165
Nsg166
g8
sg167
(lp1171
sg169
S'A'
sg170
g41
sg171
S'N'
sg172
S'A'
sg173
g18
sg174
I01
sg175
S''
sg176
S'N'
sg177
F14.0067
sS'y'
F-0.0092215532627108361
sg178
I0
sbag60
ag82
ag352
ag372
ag625
ag645
ag898
ag918
ag102
ag122
ag392
ag412
ag665
ag685
ag938
ag958
ag309
ag330
ag266
ag287
ag582
ag603
ag539
ag560
ag855
ag876
ag812
ag833
ag1128
ag1149
ag1085
ag1106
ag222
ag244
ag143
ag179
ag200
ag496
ag517
ag432
ag453
ag474
ag769
ag790
ag705
ag726
ag747
ag1042
ag1063
ag978
ag999
ag1020
atRp1172
(dp1173
S'CIF_ligand_type'
p1174
S'ligand'
p1175
sS'CIF_id'
p1176
S'TBA'
p1177
sS'energy'
p1178
F111.67835305835591
sS'chiral_restraint'
p1179
(dp1180
sS'ring_atom_lists'
p1181
(lp1182
sS'OutputHeaderData'
p1183
(dp1184
S'qm_method'
p1185
S'AM1'
p1186
sS'random_seed'
p1187
S'3628800'
p1188
sS'qm_basis'
p1189
g1186
sS'file'
p1190
S'/home/liuyoujia/phenix-1.19rc3-4024/modules/chem_data/chemical_components/t/data_TBA.cif'
p1191
ssS'OriginalFormat'
p1192
g1
(celbow.formats.FormatClass
FormatClass
p1193
c__builtin__
dict
p1194
(dp1195
S'atom_names'
p1196
I01
sS'smiles'
p1197
I00
sS'bond_connections_optional'
p1198
I00
sS'bond_orders'
p1199
I01
sS'bond_connections'
p1200
I01
sS'xyz_coordinates'
p1201
I00
stRp1202
(dp1203
S'format'
p1204
S'CHEMICAL COMPONENTS'
p1205
sbsS'WriteCIF2String_defaults'
p1206
(lp1207
I00
aI01
aS'TBA'
p1208
aS''
aI00
aI01
aI00
aS'retain'
p1209
aI00
aI01
aI01
a(I4
I3
I2
tp1210
aI00
aI00
aNaI01
a(lp1211
a(lp1212
a(lp1213
a(lp1214
aI00
aI00
asS'chiral_class'
p1215
(dp1216
sS'invisible_plane'
p1217
g1
(celbow.chemistry.PeptideClass
PeptideClass
p1218
g3
(ltRp1219
(dp1220
S'restraint_class'
p1221
g1
(celbow.cctbx_api.RestraintClass
RestraintClass
p1222
g1194
(dtRp1223
(dp1224
S'type'
p1225
NsS'link'
p1226
(dp1227
sS'overwrite'
p1228
I00
sS'hydrogens'
p1229
(lp1230
sS'restraint_type'
p1231
(dp1232
sbsS'dihedral_const_var_type'
p1233
(lp1234
sbsS'rotation_step'
p1235
I10
sS'RestraintWeights'
p1236
(dp1237
S'LoopClass'
p1238
(dp1239
S'angle'
p1240
F0.25
sS'bond'
p1241
I50
ssS'GetCCTBXRestraints'
p1242
(dp1243
g1240
F1
sg1241
F100
ssS'ZMatrixClass'
p1244
(dp1245
g1240
I10
sg1241
F100
ssS'AdjustRestraintClass'
p1246
(dp1247
S'ring_planar'
p1248
F0.10000000000000001
sS'aromatic_bond'
p1249
F100
sg1240
F1.5
sg175
F50
sS'loose_angle'
p1250
F0.25
sS'non_ring_planar'
p1251
F0.20000000000000001
ssS'RingClass'
p1252
(dp1253
S'flatness'
p1254
F10
sg1240
F2
sS'non_aromatic'
p1255
F10
sS'chair_boat'
p1256
F1
sg1241
F200
ssS'ChiralClass'
p1257
(dp1258
g1241
F100
sssS'CIF_name'
p1259
S'Unknown'
p1260
sS'EnergyTerms'
p1261
NsS'CIF_three_letter_code'
p1262
S'TBA'
p1263
sS'RotationSubUnits'
p1264
(dp1265
(I1
I2
tp1266
(lp1267
(ielbow.utilities.sets
Set
p1268
(dp1269
S'dict'
p1270
(dp1271
g1063
I1
sg645
I1
sg1020
I1
sg978
I1
sg1085
I1
sg1106
I1
sg876
I1
sg392
I1
sg372
I1
sg539
I1
sg999
I1
sg726
I1
sg603
I1
sg685
I1
sg855
I1
sg560
I1
sg958
I1
sg352
I1
sg833
I1
sg665
I1
sg1149
I1
sg790
I1
sg432
I1
sg582
I1
sg918
I1
sg769
I1
sg1042
I1
sg412
I1
sg625
I1
sg517
I1
sg453
I1
sg812
I1
sg938
I1
sg898
I1
sg474
I1
sg747
I1
sg496
I1
sg1128
I1
sg705
I1
ssba(ielbow.utilities.sets
Set
p1272
(dp1273
g1270
(dp1274
g82
I1
sg179
I1
sg287
I1
sg244
I1
sg266
I1
sg309
I1
sg200
I1
sg330
I1
sg143
I1
sg102
I1
sg222
I1
sg122
I1
ssbas(I7
I14
tp1275
(lp1276
(ielbow.utilities.sets
Set
p1277
(dp1278
g1270
(dp1279
g517
I1
sg122
I1
sg1063
I1
sg560
I1
sg978
I1
sg330
I1
sg1085
I1
sg287
I1
sg876
I1
sg938
I1
sg392
I1
sg309
I1
sg539
I1
sg179
I1
sg143
I1
sg474
I1
sg603
I1
sg999
I1
sg102
I1
sg372
I1
sg855
I1
sg266
I1
sg958
I1
sg1020
I1
sg352
I1
sg1128
I1
sg1149
I1
sg5
I1
sg432
I1
sg582
I1
sg496
I1
sg60
I1
sg1042
I1
sg412
I1
sg82
I1
sg625
I1
sg898
I1
sg453
I1
sg812
I1
sg200
I1
sg244
I1
sg222
I1
sg1106
I1
sg918
I1
sg833
I1
ssba(ielbow.utilities.sets
Set
p1280
(dp1281
g1270
(dp1282
g726
I1
sg790
I1
sg769
I1
sg685
I1
sg747
I1
sg705
I1
ssbas(I6
I7
tp1283
(lp1284
(ielbow.utilities.sets
Set
p1285
(dp1286
g1270
(dp1287
g517
I1
sg122
I1
sg1063
I1
sg560
I1
sg978
I1
sg330
I1
sg1085
I1
sg287
I1
sg876
I1
sg938
I1
sg392
I1
sg309
I1
sg539
I1
sg179
I1
sg143
I1
sg474
I1
sg603
I1
sg999
I1
sg102
I1
sg372
I1
sg855
I1
sg266
I1
sg958
I1
sg1020
I1
sg352
I1
sg1128
I1
sg1149
I1
sg5
I1
sg432
I1
sg582
I1
sg496
I1
sg60
I1
sg1042
I1
sg412
I1
sg82
I1
sg898
I1
sg453
I1
sg200
I1
sg244
I1
sg222
I1
sg1106
I1
sg918
I1
ssba(ielbow.utilities.sets
Set
p1288
(dp1289
g1270
(dp1290
g665
I1
sg726
I1
sg790
I1
sg812
I1
sg769
I1
sg685
I1
sg747
I1
sg705
I1
sg833
I1
ssbas(I4
I5
tp1291
(lp1292
(ielbow.utilities.sets
Set
p1293
(dp1294
g1270
(dp1295
g122
I1
sg1063
I1
sg645
I1
sg1020
I1
sg769
I1
sg330
I1
sg1085
I1
sg287
I1
sg876
I1
sg938
I1
sg1106
I1
sg999
I1
sg143
I1
sg726
I1
sg603
I1
sg102
I1
sg685
I1
sg855
I1
sg266
I1
sg958
I1
sg1128
I1
sg665
I1
sg1149
I1
sg790
I1
sg5
I1
sg309
I1
sg582
I1
sg918
I1
sg978
I1
sg60
I1
sg1042
I1
sg82
I1
sg625
I1
sg179
I1
sg898
I1
sg812
I1
sg200
I1
sg244
I1
sg222
I1
sg747
I1
sg833
I1
sg705
I1
ssba(ielbow.utilities.sets
Set
p1296
(dp1297
g1270
(dp1298
g539
I1
sg432
I1
sg517
I1
sg474
I1
sg453
I1
sg496
I1
sg560
I1
sg392
I1
sg412
I1
ssbas(I3
I10
tp1299
(lp1300
(ielbow.utilities.sets
Set
p1301
(dp1302
g1270
(dp1303
g1063
I1
sg645
I1
sg560
I1
sg769
I1
sg330
I1
sg1085
I1
sg287
I1
sg1106
I1
sg876
I1
sg392
I1
sg372
I1
sg539
I1
sg999
I1
sg726
I1
sg603
I1
sg685
I1
sg855
I1
sg266
I1
sg958
I1
sg1020
I1
sg352
I1
sg833
I1
sg665
I1
sg790
I1
sg1149
I1
sg5
I1
sg432
I1
sg582
I1
sg496
I1
sg978
I1
sg60
I1
sg1042
I1
sg412
I1
sg309
I1
sg625
I1
sg517
I1
sg453
I1
sg812
I1
sg938
I1
sg898
I1
sg474
I1
sg747
I1
sg918
I1
sg1128
I1
sg705
I1
ssba(ielbow.utilities.sets
Set
p1304
(dp1305
g1270
(dp1306
g179
I1
sg143
I1
sg200
I1
sg122
I1
sg244
I1
sg222
I1
ssbas(I1
I8
tp1307
(lp1308
(ielbow.utilities.sets
Set
p1309
(dp1310
g1270
(dp1311
g122
I1
sg287
I1
sg645
I1
sg560
I1
sg769
I1
sg330
I1
sg876
I1
sg392
I1
sg372
I1
sg539
I1
sg179
I1
sg143
I1
sg726
I1
sg603
I1
sg102
I1
sg685
I1
sg855
I1
sg266
I1
sg352
I1
sg833
I1
sg665
I1
sg790
I1
sg432
I1
sg309
I1
sg582
I1
sg496
I1
sg60
I1
sg412
I1
sg82
I1
sg625
I1
sg517
I1
sg453
I1
sg812
I1
sg200
I1
sg244
I1
sg222
I1
sg474
I1
sg747
I1
sg705
I1
ssba(ielbow.utilities.sets
Set
p1312
(dp1313
g1270
(dp1314
g999
I1
sg1063
I1
sg1042
I1
sg1020
I1
sg1149
I1
sg978
I1
sg938
I1
sg1106
I1
sg918
I1
sg1085
I1
sg958
I1
sg1128
I1
ssbas(I1
I4
tp1315
(lp1316
(ielbow.utilities.sets
Set
p1317
(dp1318
g1270
(dp1319
g122
I1
sg1063
I1
sg645
I1
sg1020
I1
sg769
I1
sg330
I1
sg1085
I1
sg287
I1
sg876
I1
sg938
I1
sg179
I1
sg244
I1
sg726
I1
sg102
I1
sg685
I1
sg855
I1
sg266
I1
sg958
I1
sg833
I1
sg665
I1
sg1149
I1
sg790
I1
sg999
I1
sg309
I1
sg1106
I1
sg918
I1
sg978
I1
sg60
I1
sg1042
I1
sg82
I1
sg625
I1
sg898
I1
sg812
I1
sg200
I1
sg143
I1
sg222
I1
sg747
I1
sg1128
I1
sg705
I1
ssba(ielbow.utilities.sets
Set
p1320
(dp1321
g1270
(dp1322
g539
I1
sg432
I1
sg517
I1
sg474
I1
sg453
I1
sg603
I1
sg582
I1
sg496
I1
sg560
I1
sg392
I1
sg412
I1
sg372
I1
ssbas(I8
I9
tp1323
(lp1324
(ielbow.utilities.sets
Set
p1325
(dp1326
g1270
(dp1327
g122
I1
sg287
I1
sg645
I1
sg560
I1
sg769
I1
sg330
I1
sg876
I1
sg392
I1
sg309
I1
sg539
I1
sg179
I1
sg143
I1
sg726
I1
sg603
I1
sg102
I1
sg685
I1
sg372
I1
sg855
I1
sg266
I1
sg352
I1
sg833
I1
sg665
I1
sg790
I1
sg1149
I1
sg5
I1
sg432
I1
sg582
I1
sg496
I1
sg60
I1
sg412
I1
sg82
I1
sg625
I1
sg517
I1
sg453
I1
sg812
I1
sg200
I1
sg244
I1
sg222
I1
sg474
I1
sg747
I1
sg1128
I1
sg705
I1
ssba(ielbow.utilities.sets
Set
p1328
(dp1329
g1270
(dp1330
g999
I1
sg1063
I1
sg1020
I1
sg978
I1
sg938
I1
sg1106
I1
sg1042
I1
sg958
I1
sg1085
I1
ssbas(I9
I16
tp1331
(lp1332
(ielbow.utilities.sets
Set
p1333
(dp1334
g1270
(dp1335
g517
I1
sg122
I1
sg287
I1
sg645
I1
sg266
I1
sg769
I1
sg330
I1
sg1106
I1
sg876
I1
sg392
I1
sg309
I1
sg539
I1
sg179
I1
sg143
I1
sg726
I1
sg603
I1
sg102
I1
sg685
I1
sg372
I1
sg855
I1
sg560
I1
sg352
I1
sg1128
I1
sg665
I1
sg790
I1
sg1149
I1
sg5
I1
sg432
I1
sg582
I1
sg496
I1
sg60
I1
sg1085
I1
sg412
I1
sg82
I1
sg625
I1
sg898
I1
sg453
I1
sg812
I1
sg200
I1
sg244
I1
sg222
I1
sg474
I1
sg747
I1
sg833
I1
sg705
I1
ssba(ielbow.utilities.sets
Set
p1336
(dp1337
g1270
(dp1338
g999
I1
sg1063
I1
sg1020
I1
sg978
I1
sg1042
I1
sg958
I1
ssbas(I2
I3
tp1339
(lp1340
(ielbow.utilities.sets
Set
p1341
(dp1342
g1270
(dp1343
g1063
I1
sg645
I1
sg560
I1
sg769
I1
sg330
I1
sg1085
I1
sg1106
I1
sg876
I1
sg392
I1
sg372
I1
sg539
I1
sg999
I1
sg726
I1
sg603
I1
sg685
I1
sg855
I1
sg1020
I1
sg958
I1
sg352
I1
sg833
I1
sg665
I1
sg790
I1
sg1149
I1
sg5
I1
sg309
I1
sg582
I1
sg496
I1
sg978
I1
sg432
I1
sg1042
I1
sg412
I1
sg625
I1
sg517
I1
sg453
I1
sg812
I1
sg938
I1
sg898
I1
sg474
I1
sg747
I1
sg918
I1
sg1128
I1
sg705
I1
ssba(ielbow.utilities.sets
Set
p1344
(dp1345
g1270
(dp1346
g179
I1
sg287
I1
sg143
I1
sg266
I1
sg200
I1
sg122
I1
sg244
I1
sg102
I1
sg222
I1
ssbas(I1
I6
tp1347
(lp1348
(ielbow.utilities.sets
Set
p1349
(dp1350
g1270
(dp1351
g517
I1
sg122
I1
sg1063
I1
sg266
I1
sg978
I1
sg330
I1
sg1085
I1
sg287
I1
sg938
I1
sg392
I1
sg372
I1
sg539
I1
sg999
I1
sg143
I1
sg474
I1
sg603
I1
sg102
I1
sg560
I1
sg958
I1
sg1020
I1
sg352
I1
sg1128
I1
sg1149
I1
sg432
I1
sg309
I1
sg582
I1
sg496
I1
sg60
I1
sg1042
I1
sg412
I1
sg82
I1
sg179
I1
sg898
I1
sg453
I1
sg200
I1
sg244
I1
sg222
I1
sg1106
I1
sg918
I1
ssba(ielbow.utilities.sets
Set
p1352
(dp1353
g1270
(dp1354
g665
I1
sg645
I1
sg726
I1
sg790
I1
sg812
I1
sg769
I1
sg685
I1
sg855
I1
sg747
I1
sg876
I1
sg705
I1
sg833
I1
ssbas(I5
I12
tp1355
(lp1356
(ielbow.utilities.sets
Set
p1357
(dp1358
g1270
(dp1359
g122
I1
sg1063
I1
sg645
I1
sg1020
I1
sg769
I1
sg330
I1
sg1085
I1
sg287
I1
sg876
I1
sg938
I1
sg1106
I1
sg539
I1
sg999
I1
sg244
I1
sg726
I1
sg603
I1
sg102
I1
sg685
I1
sg855
I1
sg560
I1
sg958
I1
sg352
I1
sg1128
I1
sg665
I1
sg1149
I1
sg790
I1
sg5
I1
sg309
I1
sg582
I1
sg918
I1
sg978
I1
sg60
I1
sg1042
I1
sg82
I1
sg625
I1
sg179
I1
sg898
I1
sg812
I1
sg200
I1
sg143
I1
sg266
I1
sg222
I1
sg747
I1
sg833
I1
sg705
I1
ssba(ielbow.utilities.sets
Set
p1360
(dp1361
g1270
(dp1362
g432
I1
sg517
I1
sg474
I1
sg453
I1
sg496
I1
sg412
I1
ssbassS'filename_preamble'
p1363
g1208
sS'ligand_type'
p1364
S'NON-POLYMER'
p1365
sS'loop_class'
p1366
(lp1367
sg29
I1
sS'residue_name'
p1368
g1208
sS'temp_pdb'
p1369
S'/tmp/tmpOWfJrY'
p1370
sS'ring_dihedrals'
p1371
(lp1372
sS'maximum_bond_length'
p1373
F3
sS'peptide_class'
p1374
g1
(g1218
g3
(ltRp1375
(dp1376
g1221
g1
(g1222
g1194
(dtRp1377
(dp1378
g1225
Nsg1226
(dp1379
sg1228
I00
sg1229
(lp1380
sg1231
(dp1381
sbsg1233
(lp1382
sbsS'RestraintValues'
p1383
(dp1384
g1252
(dp1385
g1240
(dp1386
I3
F60
sI4
F90
sI5
F106
sI6
F113
ssS'dihedral'
p1387
(dp1388
I5
(lp1389
F25
aI10
asI6
(lp1390
F55
aI1
assssS'molecule_number'
p1391
I0
sS'chiral_zmatrix'
p1392
(dp1393
sS'trace'
p1394
(dp1395
I0
(dp1396
S'C'
I1
ssI1
(dp1397
S'H'
I2
sS'C'
I1
ssI2
(dp1398
S'H'
I2
sS'C'
I1
ssI3
(dp1399
S'H'
I2
sS'C'
I1
ssI4
(dp1400
S'H'
I3
sssS'bonds'
p1401
g1
(celbow.chemistry.InternalCoordinateListClass
InternalCoordinateListClass
p1402
g3
(lp1403
g1
(celbow.chemistry.BondClass
BondClass
p1404
g3
(lp1405
g5
ag60
atRp1406
(dp1407
S'equil'
p1408
F1.451533
sS'max_atoms'
p1409
I2
sg171
S'-'
sS'symbols'
p1410
(lp1411
sS'restrain'
p1412
I00
sS'input_order'
p1413
I1
sS'order'
p1414
I1
sS'neutron'
p1415
F1.4566270999242492
sbag1
(g1404
g3
(lp1416
g5
ag352
atRp1417
(dp1418
g1408
F1.451533
sg1409
I2
sg171
S'-'
sg1410
g1411
sg1412
I00
sg1413
I1
sg1414
I1
sg1415
F1.4573863100675823
sbag1
(g1404
g3
(lp1419
g5
ag625
atRp1420
(dp1421
g1408
F1.451533
sg1409
I2
sg171
S'-'
sg1410
g1411
sg1412
I00
sg1413
I1
sg1414
I1
sg1415
F1.4575743941145991
sbag1
(g1404
g3
(lp1422
g5
ag898
atRp1423
(dp1424
g1408
F1.451533
sg1409
I2
sg171
S'-'
sg1410
g1411
sg1412
I00
sg1413
I1
sg1414
I1
sg1415
F1.4572271517559154
sbag1
(g1404
g3
(lp1425
g60
ag82
atRp1426
(dp1427
g1408
F1.527126
sg1409
I2
sg171
S'-'
sg1410
g1411
sg1412
I00
sg1413
I1
sg1414
I1
sg1415
F1.5295422171484252
sbag1
(g1404
g3
(lp1428
g60
ag309
atRp1429
(dp1430
g1408
F0.96999999999999997
sg1409
I2
sg171
S'-'
sg1410
g1411
sg1412
I00
sg1413
I1
sg1414
I1
sg1415
F1.0900000000000001
sbag1
(g1404
g3
(lp1431
g60
ag330
atRp1432
(dp1433
g1408
F0.96999999999999997
sg1409
I2
sg171
S'-'
sg1410
g1411
sg1412
I00
sg1413
I1
sg1414
I1
sg1415
F1.0900000000000001
sbag1
(g1404
g3
(lp1434
g82
ag102
atRp1435
(dp1436
g1408
F1.527126
sg1409
I2
sg171
S'-'
sg1410
g1411
sg1412
I00
sg1413
I1
sg1414
I1
sg1415
F1.5290539427803442
sbag1
(g1404
g3
(lp1437
g82
ag266
atRp1438
(dp1439
g1408
F0.96999999999999997
sg1409
I2
sg171
S'-'
sg1410
g1411
sg1412
I00
sg1413
I1
sg1414
I1
sg1415
F1.0900000000000001
sbag1
(g1404
g3
(lp1440
g82
ag287
atRp1441
(dp1442
g1408
F0.96999999999999997
sg1409
I2
sg171
S'-'
sg1410
g1411
sg1412
I00
sg1413
I1
sg1414
I1
sg1415
F1.0900000000000001
sbag1
(g1404
g3
(lp1443
g352
ag372
atRp1444
(dp1445
g1408
F1.527126
sg1409
I2
sg171
S'-'
sg1410
g1411
sg1412
I00
sg1413
I1
sg1414
I1
sg1415
F1.5304741859087925
sbag1
(g1404
g3
(lp1446
g352
ag582
atRp1447
(dp1448
g1408
F0.96999999999999997
sg1409
I2
sg171
S'-'
sg1410
g1411
sg1412
I00
sg1413
I1
sg1414
I1
sg1415
F1.0900000000000001
sbag1
(g1404
g3
(lp1449
g352
ag603
atRp1450
(dp1451
g1408
F0.96999999999999997
sg1409
I2
sg171
S'-'
sg1410
g1411
sg1412
I00
sg1413
I1
sg1414
I1
sg1415
F1.0900000000000001
sbag1
(g1404
g3
(lp1452
g372
ag392
atRp1453
(dp1454
g1408
F1.527126
sg1409
I2
sg171
S'-'
sg1410
g1411
sg1412
I00
sg1413
I1
sg1414
I1
sg1415
F1.5265959001154323
sbag1
(g1404
g3
(lp1455
g372
ag539
atRp1456
(dp1457
g1408
F0.96999999999999997
sg1409
I2
sg171
S'-'
sg1410
g1411
sg1412
I00
sg1413
I1
sg1414
I1
sg1415
F1.0900000000000001
sbag1
(g1404
g3
(lp1458
g372
ag560
atRp1459
(dp1460
g1408
F0.96999999999999997
sg1409
I2
sg171
S'-'
sg1410
g1411
sg1412
I00
sg1413
I1
sg1414
I1
sg1415
F1.0900000000000001
sbag1
(g1404
g3
(lp1461
g625
ag645
atRp1462
(dp1463
g1408
F1.527126
sg1409
I2
sg171
S'-'
sg1410
g1411
sg1412
I00
sg1413
I1
sg1414
I1
sg1415
F1.5298474667947652
sbag1
(g1404
g3
(lp1464
g625
ag855
atRp1465
(dp1466
g1408
F0.96999999999999997
sg1409
I2
sg171
S'-'
sg1410
g1411
sg1412
I00
sg1413
I1
sg1414
I1
sg1415
F1.0900000000000001
sbag1
(g1404
g3
(lp1467
g625
ag876
atRp1468
(dp1469
g1408
F0.96999999999999997
sg1409
I2
sg171
S'-'
sg1410
g1411
sg1412
I00
sg1413
I1
sg1414
I1
sg1415
F1.0900000000000001
sbag1
(g1404
g3
(lp1470
g645
ag665
atRp1471
(dp1472
g1408
F1.527126
sg1409
I2
sg171
S'-'
sg1410
g1411
sg1412
I00
sg1413
I1
sg1414
I1
sg1415
F1.528949576246829
sbag1
(g1404
g3
(lp1473
g645
ag812
atRp1474
(dp1475
g1408
F0.96999999999999997
sg1409
I2
sg171
S'-'
sg1410
g1411
sg1412
I00
sg1413
I1
sg1414
I1
sg1415
F1.0900000000000001
sbag1
(g1404
g3
(lp1476
g645
ag833
atRp1477
(dp1478
g1408
F0.96999999999999997
sg1409
I2
sg171
S'-'
sg1410
g1411
sg1412
I00
sg1413
I1
sg1414
I1
sg1415
F1.0900000000000001
sbag1
(g1404
g3
(lp1479
g898
ag918
atRp1480
(dp1481
g1408
F1.527126
sg1409
I2
sg171
S'-'
sg1410
g1411
sg1412
I00
sg1413
I1
sg1414
I1
sg1415
F1.5300904713266315
sbag1
(g1404
g3
(lp1482
g898
ag1128
atRp1483
(dp1484
g1408
F0.96999999999999997
sg1409
I2
sg171
S'-'
sg1410
g1411
sg1412
I00
sg1413
I1
sg1414
I1
sg1415
F1.0900000000000001
sbag1
(g1404
g3
(lp1485
g898
ag1149
atRp1486
(dp1487
g1408
F0.96999999999999997
sg1409
I2
sg171
S'-'
sg1410
g1411
sg1412
I00
sg1413
I1
sg1414
I1
sg1415
F1.0900000000000001
sbag1
(g1404
g3
(lp1488
g918
ag938
atRp1489
(dp1490
g1408
F1.527126
sg1409
I2
sg171
S'-'
sg1410
g1411
sg1412
I00
sg1413
I1
sg1414
I1
sg1415
F1.5287414743573131
sbag1
(g1404
g3
(lp1491
g918
ag1085
atRp1492
(dp1493
g1408
F0.96999999999999997
sg1409
I2
sg171
S'-'
sg1410
g1411
sg1412
I00
sg1413
I1
sg1414
I1
sg1415
F1.0900000000000001
sbag1
(g1404
g3
(lp1494
g918
ag1106
atRp1495
(dp1496
g1408
F0.96999999999999997
sg1409
I2
sg171
S'-'
sg1410
g1411
sg1412
I00
sg1413
I1
sg1414
I1
sg1415
F1.0900000000000001
sbag1
(g1404
g3
(lp1497
g102
ag122
atRp1498
(dp1499
g1408
F1.527126
sg1409
I2
sg171
S'-'
sg1410
g1411
sg1412
I00
sg1413
I1
sg1414
I1
sg1415
F1.526678619426425
sbag1
(g1404
g3
(lp1500
g102
ag222
atRp1501
(dp1502
g1408
F0.96999999999999997
sg1409
I2
sg171
S'-'
sg1410
g1411
sg1412
I00
sg1413
I1
sg1414
I1
sg1415
F1.0900000000000001
sbag1
(g1404
g3
(lp1503
g102
ag244
atRp1504
(dp1505
g1408
F0.96999999999999997
sg1409
I2
sg171
S'-'
sg1410
g1411
sg1412
I00
sg1413
I1
sg1414
I1
sg1415
F1.0900000000000001
sbag1
(g1404
g3
(lp1506
g122
ag143
atRp1507
(dp1508
g1408
F0.96999999999999997
sg1409
I2
sg171
S'-'
sg1410
g1411
sg1412
I00
sg1413
I1
sg1414
I1
sg1415
F1.0900000000000001
sbag1
(g1404
g3
(lp1509
g122
ag179
atRp1510
(dp1511
g1408
F0.96999999999999997
sg1409
I2
sg171
S'-'
sg1410
g1411
sg1412
I00
sg1413
I1
sg1414
I1
sg1415
F1.0900000000000001
sbag1
(g1404
g3
(lp1512
g122
ag200
atRp1513
(dp1514
g1408
F0.96999999999999997
sg1409
I2
sg171
S'-'
sg1410
g1411
sg1412
I00
sg1413
I1
sg1414
I1
sg1415
F1.0900000000000001
sbag1
(g1404
g3
(lp1515
g392
ag412
atRp1516
(dp1517
g1408
F1.527126
sg1409
I2
sg171
S'-'
sg1410
g1411
sg1412
I00
sg1413
I1
sg1414
I1
sg1415
F1.527843069286017
sbag1
(g1404
g3
(lp1518
g392
ag496
atRp1519
(dp1520
g1408
F0.96999999999999997
sg1409
I2
sg171
S'-'
sg1410
g1411
sg1412
I00
sg1413
I1
sg1414
I1
sg1415
F1.0900000000000001
sbag1
(g1404
g3
(lp1521
g392
ag517
atRp1522
(dp1523
g1408
F0.96999999999999997
sg1409
I2
sg171
S'-'
sg1410
g1411
sg1412
I00
sg1413
I1
sg1414
I1
sg1415
F1.0900000000000001
sbag1
(g1404
g3
(lp1524
g412
ag432
atRp1525
(dp1526
g1408
F0.96999999999999997
sg1409
I2
sg171
S'-'
sg1410
g1411
sg1412
I00
sg1413
I1
sg1414
I1
sg1415
F1.0900000000000001
sbag1
(g1404
g3
(lp1527
g412
ag453
atRp1528
(dp1529
g1408
F0.96999999999999997
sg1409
I2
sg171
S'-'
sg1410
g1411
sg1412
I00
sg1413
I1
sg1414
I1
sg1415
F1.0900000000000001
sbag1
(g1404
g3
(lp1530
g412
ag474
atRp1531
(dp1532
g1408
F0.96999999999999997
sg1409
I2
sg171
S'-'
sg1410
g1411
sg1412
I00
sg1413
I1
sg1414
I1
sg1415
F1.0900000000000001
sbag1
(g1404
g3
(lp1533
g665
ag685
atRp1534
(dp1535
g1408
F1.527126
sg1409
I2
sg171
S'-'
sg1410
g1411
sg1412
I00
sg1413
I1
sg1414
I1
sg1415
F1.5282181993403332
sbag1
(g1404
g3
(lp1536
g665
ag769
atRp1537
(dp1538
g1408
F0.96999999999999997
sg1409
I2
sg171
S'-'
sg1410
g1411
sg1412
I00
sg1413
I1
sg1414
I1
sg1415
F1.0900000000000001
sbag1
(g1404
g3
(lp1539
g665
ag790
atRp1540
(dp1541
g1408
F0.96999999999999997
sg1409
I2
sg171
S'-'
sg1410
g1411
sg1412
I00
sg1413
I1
sg1414
I1
sg1415
F1.0900000000000001
sbag1
(g1404
g3
(lp1542
g685
ag705
atRp1543
(dp1544
g1408
F0.96999999999999997
sg1409
I2
sg171
S'-'
sg1410
g1411
sg1412
I00
sg1413
I1
sg1414
I1
sg1415
F1.0900000000000001
sbag1
(g1404
g3
(lp1545
g685
ag726
atRp1546
(dp1547
g1408
F0.96999999999999997
sg1409
I2
sg171
S'-'
sg1410
g1411
sg1412
I00
sg1413
I1
sg1414
I1
sg1415
F1.0900000000000001
sbag1
(g1404
g3
(lp1548
g685
ag747
atRp1549
(dp1550
g1408
F0.96999999999999997
sg1409
I2
sg171
S'-'
sg1410
g1411
sg1412
I00
sg1413
I1
sg1414
I1
sg1415
F1.0900000000000001
sbag1
(g1404
g3
(lp1551
g938
ag958
atRp1552
(dp1553
g1408
F1.527126
sg1409
I2
sg171
S'-'
sg1410
g1411
sg1412
I00
sg1413
I1
sg1414
I1
sg1415
F1.5279115269131502
sbag1
(g1404
g3
(lp1554
g938
ag1042
atRp1555
(dp1556
g1408
F0.96999999999999997
sg1409
I2
sg171
S'-'
sg1410
g1411
sg1412
I00
sg1413
I1
sg1414
I1
sg1415
F1.0900000000000001
sbag1
(g1404
g3
(lp1557
g938
ag1063
atRp1558
(dp1559
g1408
F0.96999999999999997
sg1409
I2
sg171
S'-'
sg1410
g1411
sg1412
I00
sg1413
I1
sg1414
I1
sg1415
F1.0900000000000001
sbag1
(g1404
g3
(lp1560
g958
ag978
atRp1561
(dp1562
g1408
F0.96999999999999997
sg1409
I2
sg171
S'-'
sg1410
g1411
sg1412
I00
sg1413
I1
sg1414
I1
sg1415
F1.0900000000000001
sbag1
(g1404
g3
(lp1563
g958
ag999
atRp1564
(dp1565
g1408
F0.96999999999999997
sg1409
I2
sg171
S'-'
sg1410
g1411
sg1412
I00
sg1413
I1
sg1414
I1
sg1415
F1.0900000000000001
sbag1
(g1404
g3
(lp1566
g958
ag1020
atRp1567
(dp1568
g1408
F0.96999999999999997
sg1409
I2
sg171
S'-'
sg1410
g1411
sg1412
I00
sg1413
I1
sg1414
I1
sg1415
F1.0900000000000001
sbatRp1569
sS'start_time'
p1570
F1617083425.8995249
sS'UseCIFWeights'
p1571
I01
sS'rejected'
p1572
(lp1573
sS'ring_class'
p1574
(lp1575
sS'angles'
p1576
g1
(g1402
g3
(lp1577
g1
(celbow.chemistry.AngleClass
AngleClass
p1578
g3
(lp1579
g82
ag60
ag5
atRp1580
(dp1581
g1410
(lp1582
S'-'
aS'-'
asg1412
I01
sg1408
F109.47122063449069
sbag1
(g1578
g3
(lp1583
g309
ag60
ag5
atRp1584
(dp1585
g1410
(lp1586
S'-'
aS'-'
asg1412
I01
sg1408
F109.47122063449069
sbag1
(g1578
g3
(lp1587
g330
ag60
ag5
atRp1588
(dp1589
g1410
(lp1590
S'-'
aS'-'
asg1412
I01
sg1408
F109.47122063449069
sbag1
(g1578
g3
(lp1591
g372
ag352
ag5
atRp1592
(dp1593
g1410
(lp1594
S'-'
aS'-'
asg1412
I01
sg1408
F109.47122063449069
sbag1
(g1578
g3
(lp1595
g582
ag352
ag5
atRp1596
(dp1597
g1410
(lp1598
S'-'
aS'-'
asg1412
I01
sg1408
F109.47122063449069
sbag1
(g1578
g3
(lp1599
g603
ag352
ag5
atRp1600
(dp1601
g1410
(lp1602
S'-'
aS'-'
asg1412
I01
sg1408
F109.47122063449069
sbag1
(g1578
g3
(lp1603
g645
ag625
ag5
atRp1604
(dp1605
g1410
(lp1606
S'-'
aS'-'
asg1412
I01
sg1408
F109.47122063449069
sbag1
(g1578
g3
(lp1607
g855
ag625
ag5
atRp1608
(dp1609
g1410
(lp1610
S'-'
aS'-'
asg1412
I01
sg1408
F109.47122063449069
sbag1
(g1578
g3
(lp1611
g876
ag625
ag5
atRp1612
(dp1613
g1410
(lp1614
S'-'
aS'-'
asg1412
I01
sg1408
F109.47122063449069
sbag1
(g1578
g3
(lp1615
g918
ag898
ag5
atRp1616
(dp1617
g1410
(lp1618
S'-'
aS'-'
asg1412
I01
sg1408
F109.47122063449069
sbag1
(g1578
g3
(lp1619
g1128
ag898
ag5
atRp1620
(dp1621
g1410
(lp1622
S'-'
aS'-'
asg1412
I01
sg1408
F109.47122063449069
sbag1
(g1578
g3
(lp1623
g1149
ag898
ag5
atRp1624
(dp1625
g1410
(lp1626
S'-'
aS'-'
asg1412
I01
sg1408
F109.47122063449069
sbag1
(g1578
g3
(lp1627
g352
ag5
ag60
atRp1628
(dp1629
g1410
(lp1630
S'-'
aS'-'
asg1412
I01
sg1408
F109.47122063449069
sbag1
(g1578
g3
(lp1631
g625
ag5
ag60
atRp1632
(dp1633
g1410
(lp1634
S'-'
aS'-'
asg1412
I01
sg1408
F109.47122063449069
sbag1
(g1578
g3
(lp1635
g898
ag5
ag60
atRp1636
(dp1637
g1410
(lp1638
S'-'
aS'-'
asg1412
I01
sg1408
F109.47122063449069
sbag1
(g1578
g3
(lp1639
g102
ag82
ag60
atRp1640
(dp1641
g1410
(lp1642
S'-'
aS'-'
asg1412
I01
sg1408
F109.47122063449069
sbag1
(g1578
g3
(lp1643
g266
ag82
ag60
atRp1644
(dp1645
g1410
(lp1646
S'-'
aS'-'
asg1412
I01
sg1408
F109.47122063449069
sbag1
(g1578
g3
(lp1647
g287
ag82
ag60
atRp1648
(dp1649
g1410
(lp1650
S'-'
aS'-'
asg1412
I01
sg1408
F109.47122063449069
sbag1
(g1578
g3
(lp1651
g309
ag60
ag82
atRp1652
(dp1653
g1410
(lp1654
S'-'
aS'-'
asg1412
I01
sg1408
F109.47122063449069
sbag1
(g1578
g3
(lp1655
g330
ag60
ag82
atRp1656
(dp1657
g1410
(lp1658
S'-'
aS'-'
asg1412
I01
sg1408
F109.47122063449069
sbag1
(g1578
g3
(lp1659
g122
ag102
ag82
atRp1660
(dp1661
g1410
(lp1662
S'-'
aS'-'
asg1412
I01
sg1408
F109.47122063449069
sbag1
(g1578
g3
(lp1663
g222
ag102
ag82
atRp1664
(dp1665
g1410
(lp1666
S'-'
aS'-'
asg1412
I01
sg1408
F109.47122063449069
sbag1
(g1578
g3
(lp1667
g244
ag102
ag82
atRp1668
(dp1669
g1410
(lp1670
S'-'
aS'-'
asg1412
I01
sg1408
F109.47122063449069
sbag1
(g1578
g3
(lp1671
g625
ag5
ag352
atRp1672
(dp1673
g1410
(lp1674
S'-'
aS'-'
asg1412
I01
sg1408
F109.47122063449069
sbag1
(g1578
g3
(lp1675
g898
ag5
ag352
atRp1676
(dp1677
g1410
(lp1678
S'-'
aS'-'
asg1412
I01
sg1408
F109.47122063449069
sbag1
(g1578
g3
(lp1679
g392
ag372
ag352
atRp1680
(dp1681
g1410
(lp1682
S'-'
aS'-'
asg1412
I01
sg1408
F109.47122063449069
sbag1
(g1578
g3
(lp1683
g539
ag372
ag352
atRp1684
(dp1685
g1410
(lp1686
S'-'
aS'-'
asg1412
I01
sg1408
F109.47122063449069
sbag1
(g1578
g3
(lp1687
g560
ag372
ag352
atRp1688
(dp1689
g1410
(lp1690
S'-'
aS'-'
asg1412
I01
sg1408
F109.47122063449069
sbag1
(g1578
g3
(lp1691
g582
ag352
ag372
atRp1692
(dp1693
g1410
(lp1694
S'-'
aS'-'
asg1412
I01
sg1408
F109.47122063449069
sbag1
(g1578
g3
(lp1695
g603
ag352
ag372
atRp1696
(dp1697
g1410
(lp1698
S'-'
aS'-'
asg1412
I01
sg1408
F109.47122063449069
sbag1
(g1578
g3
(lp1699
g412
ag392
ag372
atRp1700
(dp1701
g1410
(lp1702
S'-'
aS'-'
asg1412
I01
sg1408
F109.47122063449069
sbag1
(g1578
g3
(lp1703
g496
ag392
ag372
atRp1704
(dp1705
g1410
(lp1706
S'-'
aS'-'
asg1412
I01
sg1408
F109.47122063449069
sbag1
(g1578
g3
(lp1707
g517
ag392
ag372
atRp1708
(dp1709
g1410
(lp1710
S'-'
aS'-'
asg1412
I01
sg1408
F109.47122063449069
sbag1
(g1578
g3
(lp1711
g898
ag5
ag625
atRp1712
(dp1713
g1410
(lp1714
S'-'
aS'-'
asg1412
I01
sg1408
F109.47122063449069
sbag1
(g1578
g3
(lp1715
g665
ag645
ag625
atRp1716
(dp1717
g1410
(lp1718
S'-'
aS'-'
asg1412
I01
sg1408
F109.47122063449069
sbag1
(g1578
g3
(lp1719
g812
ag645
ag625
atRp1720
(dp1721
g1410
(lp1722
S'-'
aS'-'
asg1412
I01
sg1408
F109.47122063449069
sbag1
(g1578
g3
(lp1723
g833
ag645
ag625
atRp1724
(dp1725
g1410
(lp1726
S'-'
aS'-'
asg1412
I01
sg1408
F109.47122063449069
sbag1
(g1578
g3
(lp1727
g855
ag625
ag645
atRp1728
(dp1729
g1410
(lp1730
S'-'
aS'-'
asg1412
I01
sg1408
F109.47122063449069
sbag1
(g1578
g3
(lp1731
g876
ag625
ag645
atRp1732
(dp1733
g1410
(lp1734
S'-'
aS'-'
asg1412
I01
sg1408
F109.47122063449069
sbag1
(g1578
g3
(lp1735
g685
ag665
ag645
atRp1736
(dp1737
g1410
(lp1738
S'-'
aS'-'
asg1412
I01
sg1408
F109.47122063449069
sbag1
(g1578
g3
(lp1739
g769
ag665
ag645
atRp1740
(dp1741
g1410
(lp1742
S'-'
aS'-'
asg1412
I01
sg1408
F109.47122063449069
sbag1
(g1578
g3
(lp1743
g790
ag665
ag645
atRp1744
(dp1745
g1410
(lp1746
S'-'
aS'-'
asg1412
I01
sg1408
F109.47122063449069
sbag1
(g1578
g3
(lp1747
g938
ag918
ag898
atRp1748
(dp1749
g1410
(lp1750
S'-'
aS'-'
asg1412
I01
sg1408
F109.47122063449069
sbag1
(g1578
g3
(lp1751
g1085
ag918
ag898
atRp1752
(dp1753
g1410
(lp1754
S'-'
aS'-'
asg1412
I01
sg1408
F109.47122063449069
sbag1
(g1578
g3
(lp1755
g1106
ag918
ag898
atRp1756
(dp1757
g1410
(lp1758
S'-'
aS'-'
asg1412
I01
sg1408
F109.47122063449069
sbag1
(g1578
g3
(lp1759
g1128
ag898
ag918
atRp1760
(dp1761
g1410
(lp1762
S'-'
aS'-'
asg1412
I01
sg1408
F109.47122063449069
sbag1
(g1578
g3
(lp1763
g1149
ag898
ag918
atRp1764
(dp1765
g1410
(lp1766
S'-'
aS'-'
asg1412
I01
sg1408
F109.47122063449069
sbag1
(g1578
g3
(lp1767
g958
ag938
ag918
atRp1768
(dp1769
g1410
(lp1770
S'-'
aS'-'
asg1412
I01
sg1408
F109.47122063449069
sbag1
(g1578
g3
(lp1771
g1042
ag938
ag918
atRp1772
(dp1773
g1410
(lp1774
S'-'
aS'-'
asg1412
I01
sg1408
F109.47122063449069
sbag1
(g1578
g3
(lp1775
g1063
ag938
ag918
atRp1776
(dp1777
g1410
(lp1778
S'-'
aS'-'
asg1412
I01
sg1408
F109.47122063449069
sbag1
(g1578
g3
(lp1779
g266
ag82
ag102
atRp1780
(dp1781
g1410
(lp1782
S'-'
aS'-'
asg1412
I01
sg1408
F109.47122063449069
sbag1
(g1578
g3
(lp1783
g287
ag82
ag102
atRp1784
(dp1785
g1410
(lp1786
S'-'
aS'-'
asg1412
I01
sg1408
F109.47122063449069
sbag1
(g1578
g3
(lp1787
g143
ag122
ag102
atRp1788
(dp1789
g1410
(lp1790
S'-'
aS'-'
asg1412
I01
sg1408
F109.47122063449069
sbag1
(g1578
g3
(lp1791
g179
ag122
ag102
atRp1792
(dp1793
g1410
(lp1794
S'-'
aS'-'
asg1412
I01
sg1408
F109.47122063449069
sbag1
(g1578
g3
(lp1795
g200
ag122
ag102
atRp1796
(dp1797
g1410
(lp1798
S'-'
aS'-'
asg1412
I01
sg1408
F109.47122063449069
sbag1
(g1578
g3
(lp1799
g222
ag102
ag122
atRp1800
(dp1801
g1410
(lp1802
S'-'
aS'-'
asg1412
I01
sg1408
F109.47122063449069
sbag1
(g1578
g3
(lp1803
g244
ag102
ag122
atRp1804
(dp1805
g1410
(lp1806
S'-'
aS'-'
asg1412
I01
sg1408
F109.47122063449069
sbag1
(g1578
g3
(lp1807
g539
ag372
ag392
atRp1808
(dp1809
g1410
(lp1810
S'-'
aS'-'
asg1412
I01
sg1408
F109.47122063449069
sbag1
(g1578
g3
(lp1811
g560
ag372
ag392
atRp1812
(dp1813
g1410
(lp1814
S'-'
aS'-'
asg1412
I01
sg1408
F109.47122063449069
sbag1
(g1578
g3
(lp1815
g432
ag412
ag392
atRp1816
(dp1817
g1410
(lp1818
S'-'
aS'-'
asg1412
I01
sg1408
F109.47122063449069
sbag1
(g1578
g3
(lp1819
g453
ag412
ag392
atRp1820
(dp1821
g1410
(lp1822
S'-'
aS'-'
asg1412
I01
sg1408
F109.47122063449069
sbag1
(g1578
g3
(lp1823
g474
ag412
ag392
atRp1824
(dp1825
g1410
(lp1826
S'-'
aS'-'
asg1412
I01
sg1408
F109.47122063449069
sbag1
(g1578
g3
(lp1827
g496
ag392
ag412
atRp1828
(dp1829
g1410
(lp1830
S'-'
aS'-'
asg1412
I01
sg1408
F109.47122063449069
sbag1
(g1578
g3
(lp1831
g517
ag392
ag412
atRp1832
(dp1833
g1410
(lp1834
S'-'
aS'-'
asg1412
I01
sg1408
F109.47122063449069
sbag1
(g1578
g3
(lp1835
g812
ag645
ag665
atRp1836
(dp1837
g1410
(lp1838
S'-'
aS'-'
asg1412
I01
sg1408
F109.47122063449069
sbag1
(g1578
g3
(lp1839
g833
ag645
ag665
atRp1840
(dp1841
g1410
(lp1842
S'-'
aS'-'
asg1412
I01
sg1408
F109.47122063449069
sbag1
(g1578
g3
(lp1843
g705
ag685
ag665
atRp1844
(dp1845
g1410
(lp1846
S'-'
aS'-'
asg1412
I01
sg1408
F109.47122063449069
sbag1
(g1578
g3
(lp1847
g726
ag685
ag665
atRp1848
(dp1849
g1410
(lp1850
S'-'
aS'-'
asg1412
I01
sg1408
F109.47122063449069
sbag1
(g1578
g3
(lp1851
g747
ag685
ag665
atRp1852
(dp1853
g1410
(lp1854
S'-'
aS'-'
asg1412
I01
sg1408
F109.47122063449069
sbag1
(g1578
g3
(lp1855
g769
ag665
ag685
atRp1856
(dp1857
g1410
(lp1858
S'-'
aS'-'
asg1412
I01
sg1408
F109.47122063449069
sbag1
(g1578
g3
(lp1859
g790
ag665
ag685
atRp1860
(dp1861
g1410
(lp1862
S'-'
aS'-'
asg1412
I01
sg1408
F109.47122063449069
sbag1
(g1578
g3
(lp1863
g1085
ag918
ag938
atRp1864
(dp1865
g1410
(lp1866
S'-'
aS'-'
asg1412
I01
sg1408
F109.47122063449069
sbag1
(g1578
g3
(lp1867
g1106
ag918
ag938
atRp1868
(dp1869
g1410
(lp1870
S'-'
aS'-'
asg1412
I01
sg1408
F109.47122063449069
sbag1
(g1578
g3
(lp1871
g978
ag958
ag938
atRp1872
(dp1873
g1410
(lp1874
S'-'
aS'-'
asg1412
I01
sg1408
F109.47122063449069
sbag1
(g1578
g3
(lp1875
g999
ag958
ag938
atRp1876
(dp1877
g1410
(lp1878
S'-'
aS'-'
asg1412
I01
sg1408
F109.47122063449069
sbag1
(g1578
g3
(lp1879
g1020
ag958
ag938
atRp1880
(dp1881
g1410
(lp1882
S'-'
aS'-'
asg1412
I01
sg1408
F109.47122063449069
sbag1
(g1578
g3
(lp1883
g1042
ag938
ag958
atRp1884
(dp1885
g1410
(lp1886
S'-'
aS'-'
asg1412
I01
sg1408
F109.47122063449069
sbag1
(g1578
g3
(lp1887
g1063
ag938
ag958
atRp1888
(dp1889
g1410
(lp1890
S'-'
aS'-'
asg1412
I01
sg1408
F109.47122063449069
sbag1
(g1578
g3
(lp1891
g330
ag60
ag309
atRp1892
(dp1893
g1410
(lp1894
S'-'
aS'-'
asg1412
I01
sg1408
F109.47122063449069
sbag1
(g1578
g3
(lp1895
g287
ag82
ag266
atRp1896
(dp1897
g1410
(lp1898
S'-'
aS'-'
asg1412
I01
sg1408
F109.47122063449069
sbag1
(g1578
g3
(lp1899
g603
ag352
ag582
atRp1900
(dp1901
g1410
(lp1902
S'-'
aS'-'
asg1412
I01
sg1408
F109.47122063449069
sbag1
(g1578
g3
(lp1903
g560
ag372
ag539
atRp1904
(dp1905
g1410
(lp1906
S'-'
aS'-'
asg1412
I01
sg1408
F109.47122063449069
sbag1
(g1578
g3
(lp1907
g876
ag625
ag855
atRp1908
(dp1909
g1410
(lp1910
S'-'
aS'-'
asg1412
I01
sg1408
F109.47122063449069
sbag1
(g1578
g3
(lp1911
g833
ag645
ag812
atRp1912
(dp1913
g1410
(lp1914
S'-'
aS'-'
asg1412
I01
sg1408
F109.47122063449069
sbag1
(g1578
g3
(lp1915
g1149
ag898
ag1128
atRp1916
(dp1917
g1410
(lp1918
S'-'
aS'-'
asg1412
I01
sg1408
F109.47122063449069
sbag1
(g1578
g3
(lp1919
g1106
ag918
ag1085
atRp1920
(dp1921
g1410
(lp1922
S'-'
aS'-'
asg1412
I01
sg1408
F109.47122063449069
sbag1
(g1578
g3
(lp1923
g244
ag102
ag222
atRp1924
(dp1925
g1410
(lp1926
S'-'
aS'-'
asg1412
I01
sg1408
F109.47122063449069
sbag1
(g1578
g3
(lp1927
g179
ag122
ag143
atRp1928
(dp1929
g1410
(lp1930
S'-'
aS'-'
asg1412
I01
sg1408
F109.47122063449069
sbag1
(g1578
g3
(lp1931
g200
ag122
ag143
atRp1932
(dp1933
g1410
(lp1934
S'-'
aS'-'
asg1412
I01
sg1408
F109.47122063449069
sbag1
(g1578
g3
(lp1935
g200
ag122
ag179
atRp1936
(dp1937
g1410
(lp1938
S'-'
aS'-'
asg1412
I01
sg1408
F109.47122063449069
sbag1
(g1578
g3
(lp1939
g517
ag392
ag496
atRp1940
(dp1941
g1410
(lp1942
S'-'
aS'-'
asg1412
I01
sg1408
F109.47122063449069
sbag1
(g1578
g3
(lp1943
g453
ag412
ag432
atRp1944
(dp1945
g1410
(lp1946
S'-'
aS'-'
asg1412
I01
sg1408
F109.47122063449069
sbag1
(g1578
g3
(lp1947
g474
ag412
ag432
atRp1948
(dp1949
g1410
(lp1950
S'-'
aS'-'
asg1412
I01
sg1408
F109.47122063449069
sbag1
(g1578
g3
(lp1951
g474
ag412
ag453
atRp1952
(dp1953
g1410
(lp1954
S'-'
aS'-'
asg1412
I01
sg1408
F109.47122063449069
sbag1
(g1578
g3
(lp1955
g790
ag665
ag769
atRp1956
(dp1957
g1410
(lp1958
S'-'
aS'-'
asg1412
I01
sg1408
F109.47122063449069
sbag1
(g1578
g3
(lp1959
g726
ag685
ag705
atRp1960
(dp1961
g1410
(lp1962
S'-'
aS'-'
asg1412
I01
sg1408
F109.47122063449069
sbag1
(g1578
g3
(lp1963
g747
ag685
ag705
atRp1964
(dp1965
g1410
(lp1966
S'-'
aS'-'
asg1412
I01
sg1408
F109.47122063449069
sbag1
(g1578
g3
(lp1967
g747
ag685
ag726
atRp1968
(dp1969
g1410
(lp1970
S'-'
aS'-'
asg1412
I01
sg1408
F109.47122063449069
sbag1
(g1578
g3
(lp1971
g1063
ag938
ag1042
atRp1972
(dp1973
g1410
(lp1974
S'-'
aS'-'
asg1412
I01
sg1408
F109.47122063449069
sbag1
(g1578
g3
(lp1975
g999
ag958
ag978
atRp1976
(dp1977
g1410
(lp1978
S'-'
aS'-'
asg1412
I01
sg1408
F109.47122063449069
sbag1
(g1578
g3
(lp1979
g1020
ag958
ag978
atRp1980
(dp1981
g1410
(lp1982
S'-'
aS'-'
asg1412
I01
sg1408
F109.47122063449069
sbag1
(g1578
g3
(lp1983
g1020
ag958
ag999
atRp1984
(dp1985
g1410
(lp1986
S'-'
aS'-'
asg1412
I01
sg1408
F109.47122063449069
sbatRp1987
sS'used_auto_bond'
p1988
I00
sS'dihedrals'
p1989
g1
(g1402
g3
(lp1990
g1
(celbow.chemistry.DihedralClass
DihedralClass
p1991
g3
(lp1992
g102
ag82
ag60
ag5
atRp1993
(dp1994
g1410
(lp1995
S'-'
aS'-'
aS'-'
asg1412
I00
sbag1
(g1991
g3
(lp1996
g266
ag82
ag60
ag5
atRp1997
(dp1998
g1410
(lp1999
S'-'
aS'-'
aS'-'
asg1412
I00
sbag1
(g1991
g3
(lp2000
g287
ag82
ag60
ag5
atRp2001
(dp2002
g1410
(lp2003
S'-'
aS'-'
aS'-'
asg1412
I00
sbag1
(g1991
g3
(lp2004
g392
ag372
ag352
ag5
atRp2005
(dp2006
g1410
(lp2007
S'-'
aS'-'
aS'-'
asg1412
I00
sbag1
(g1991
g3
(lp2008
g539
ag372
ag352
ag5
atRp2009
(dp2010
g1410
(lp2011
S'-'
aS'-'
aS'-'
asg1412
I00
sbag1
(g1991
g3
(lp2012
g560
ag372
ag352
ag5
atRp2013
(dp2014
g1410
(lp2015
S'-'
aS'-'
aS'-'
asg1412
I00
sbag1
(g1991
g3
(lp2016
g665
ag645
ag625
ag5
atRp2017
(dp2018
g1410
(lp2019
S'-'
aS'-'
aS'-'
asg1412
I00
sbag1
(g1991
g3
(lp2020
g812
ag645
ag625
ag5
atRp2021
(dp2022
g1410
(lp2023
S'-'
aS'-'
aS'-'
asg1412
I00
sbag1
(g1991
g3
(lp2024
g833
ag645
ag625
ag5
atRp2025
(dp2026
g1410
(lp2027
S'-'
aS'-'
aS'-'
asg1412
I00
sbag1
(g1991
g3
(lp2028
g938
ag918
ag898
ag5
atRp2029
(dp2030
g1410
(lp2031
S'-'
aS'-'
aS'-'
asg1412
I00
sbag1
(g1991
g3
(lp2032
g1085
ag918
ag898
ag5
atRp2033
(dp2034
g1410
(lp2035
S'-'
aS'-'
aS'-'
asg1412
I00
sbag1
(g1991
g3
(lp2036
g1106
ag918
ag898
ag5
atRp2037
(dp2038
g1410
(lp2039
S'-'
aS'-'
aS'-'
asg1412
I00
sbag1
(g1991
g3
(lp2040
g372
ag352
ag5
ag60
atRp2041
(dp2042
g1410
(lp2043
S'-'
aS'-'
aS'-'
asg1412
I00
sbag1
(g1991
g3
(lp2044
g582
ag352
ag5
ag60
atRp2045
(dp2046
g1410
(lp2047
S'-'
aS'-'
aS'-'
asg1412
I00
sbag1
(g1991
g3
(lp2048
g603
ag352
ag5
ag60
atRp2049
(dp2050
g1410
(lp2051
S'-'
aS'-'
aS'-'
asg1412
I00
sbag1
(g1991
g3
(lp2052
g645
ag625
ag5
ag60
atRp2053
(dp2054
g1410
(lp2055
S'-'
aS'-'
aS'-'
asg1412
I00
sbag1
(g1991
g3
(lp2056
g855
ag625
ag5
ag60
atRp2057
(dp2058
g1410
(lp2059
S'-'
aS'-'
aS'-'
asg1412
I00
sbag1
(g1991
g3
(lp2060
g876
ag625
ag5
ag60
atRp2061
(dp2062
g1410
(lp2063
S'-'
aS'-'
aS'-'
asg1412
I00
sbag1
(g1991
g3
(lp2064
g918
ag898
ag5
ag60
atRp2065
(dp2066
g1410
(lp2067
S'-'
aS'-'
aS'-'
asg1412
I00
sbag1
(g1991
g3
(lp2068
g1128
ag898
ag5
ag60
atRp2069
(dp2070
g1410
(lp2071
S'-'
aS'-'
aS'-'
asg1412
I00
sbag1
(g1991
g3
(lp2072
g1149
ag898
ag5
ag60
atRp2073
(dp2074
g1410
(lp2075
S'-'
aS'-'
aS'-'
asg1412
I00
sbag1
(g1991
g3
(lp2076
g122
ag102
ag82
ag60
atRp2077
(dp2078
g1410
(lp2079
S'-'
aS'-'
aS'-'
asg1412
I00
sbag1
(g1991
g3
(lp2080
g222
ag102
ag82
ag60
atRp2081
(dp2082
g1410
(lp2083
S'-'
aS'-'
aS'-'
asg1412
I00
sbag1
(g1991
g3
(lp2084
g244
ag102
ag82
ag60
atRp2085
(dp2086
g1410
(lp2087
S'-'
aS'-'
aS'-'
asg1412
I00
sbag1
(g1991
g3
(lp2088
g352
ag5
ag60
ag82
atRp2089
(dp2090
g1410
(lp2091
S'-'
aS'-'
aS'-'
asg1412
I00
sbag1
(g1991
g3
(lp2092
g625
ag5
ag60
ag82
atRp2093
(dp2094
g1410
(lp2095
S'-'
aS'-'
aS'-'
asg1412
I00
sbag1
(g1991
g3
(lp2096
g898
ag5
ag60
ag82
atRp2097
(dp2098
g1410
(lp2099
S'-'
aS'-'
aS'-'
asg1412
I00
sbag1
(g1991
g3
(lp2100
g143
ag122
ag102
ag82
atRp2101
(dp2102
g1410
(lp2103
S'-'
aS'-'
aS'-'
asg1412
I00
sbag1
(g1991
g3
(lp2104
g179
ag122
ag102
ag82
atRp2105
(dp2106
g1410
(lp2107
S'-'
aS'-'
aS'-'
asg1412
I00
sbag1
(g1991
g3
(lp2108
g200
ag122
ag102
ag82
atRp2109
(dp2110
g1410
(lp2111
S'-'
aS'-'
aS'-'
asg1412
I00
sbag1
(g1991
g3
(lp2112
g309
ag60
ag5
ag352
atRp2113
(dp2114
g1410
(lp2115
S'-'
aS'-'
aS'-'
asg1412
I00
sbag1
(g1991
g3
(lp2116
g330
ag60
ag5
ag352
atRp2117
(dp2118
g1410
(lp2119
S'-'
aS'-'
aS'-'
asg1412
I00
sbag1
(g1991
g3
(lp2120
g645
ag625
ag5
ag352
atRp2121
(dp2122
g1410
(lp2123
S'-'
aS'-'
aS'-'
asg1412
I00
sbag1
(g1991
g3
(lp2124
g855
ag625
ag5
ag352
atRp2125
(dp2126
g1410
(lp2127
S'-'
aS'-'
aS'-'
asg1412
I00
sbag1
(g1991
g3
(lp2128
g876
ag625
ag5
ag352
atRp2129
(dp2130
g1410
(lp2131
S'-'
aS'-'
aS'-'
asg1412
I00
sbag1
(g1991
g3
(lp2132
g918
ag898
ag5
ag352
atRp2133
(dp2134
g1410
(lp2135
S'-'
aS'-'
aS'-'
asg1412
I00
sbag1
(g1991
g3
(lp2136
g1128
ag898
ag5
ag352
atRp2137
(dp2138
g1410
(lp2139
S'-'
aS'-'
aS'-'
asg1412
I00
sbag1
(g1991
g3
(lp2140
g1149
ag898
ag5
ag352
atRp2141
(dp2142
g1410
(lp2143
S'-'
aS'-'
aS'-'
asg1412
I00
sbag1
(g1991
g3
(lp2144
g412
ag392
ag372
ag352
atRp2145
(dp2146
g1410
(lp2147
S'-'
aS'-'
aS'-'
asg1412
I00
sbag1
(g1991
g3
(lp2148
g496
ag392
ag372
ag352
atRp2149
(dp2150
g1410
(lp2151
S'-'
aS'-'
aS'-'
asg1412
I00
sbag1
(g1991
g3
(lp2152
g517
ag392
ag372
ag352
atRp2153
(dp2154
g1410
(lp2155
S'-'
aS'-'
aS'-'
asg1412
I00
sbag1
(g1991
g3
(lp2156
g625
ag5
ag352
ag372
atRp2157
(dp2158
g1410
(lp2159
S'-'
aS'-'
aS'-'
asg1412
I00
sbag1
(g1991
g3
(lp2160
g898
ag5
ag352
ag372
atRp2161
(dp2162
g1410
(lp2163
S'-'
aS'-'
aS'-'
asg1412
I00
sbag1
(g1991
g3
(lp2164
g432
ag412
ag392
ag372
atRp2165
(dp2166
g1410
(lp2167
S'-'
aS'-'
aS'-'
asg1412
I00
sbag1
(g1991
g3
(lp2168
g453
ag412
ag392
ag372
atRp2169
(dp2170
g1410
(lp2171
S'-'
aS'-'
aS'-'
asg1412
I00
sbag1
(g1991
g3
(lp2172
g474
ag412
ag392
ag372
atRp2173
(dp2174
g1410
(lp2175
S'-'
aS'-'
aS'-'
asg1412
I00
sbag1
(g1991
g3
(lp2176
g309
ag60
ag5
ag625
atRp2177
(dp2178
g1410
(lp2179
S'-'
aS'-'
aS'-'
asg1412
I00
sbag1
(g1991
g3
(lp2180
g330
ag60
ag5
ag625
atRp2181
(dp2182
g1410
(lp2183
S'-'
aS'-'
aS'-'
asg1412
I00
sbag1
(g1991
g3
(lp2184
g582
ag352
ag5
ag625
atRp2185
(dp2186
g1410
(lp2187
S'-'
aS'-'
aS'-'
asg1412
I00
sbag1
(g1991
g3
(lp2188
g603
ag352
ag5
ag625
atRp2189
(dp2190
g1410
(lp2191
S'-'
aS'-'
aS'-'
asg1412
I00
sbag1
(g1991
g3
(lp2192
g918
ag898
ag5
ag625
atRp2193
(dp2194
g1410
(lp2195
S'-'
aS'-'
aS'-'
asg1412
I00
sbag1
(g1991
g3
(lp2196
g1128
ag898
ag5
ag625
atRp2197
(dp2198
g1410
(lp2199
S'-'
aS'-'
aS'-'
asg1412
I00
sbag1
(g1991
g3
(lp2200
g1149
ag898
ag5
ag625
atRp2201
(dp2202
g1410
(lp2203
S'-'
aS'-'
aS'-'
asg1412
I00
sbag1
(g1991
g3
(lp2204
g685
ag665
ag645
ag625
atRp2205
(dp2206
g1410
(lp2207
S'-'
aS'-'
aS'-'
asg1412
I00
sbag1
(g1991
g3
(lp2208
g769
ag665
ag645
ag625
atRp2209
(dp2210
g1410
(lp2211
S'-'
aS'-'
aS'-'
asg1412
I00
sbag1
(g1991
g3
(lp2212
g790
ag665
ag645
ag625
atRp2213
(dp2214
g1410
(lp2215
S'-'
aS'-'
aS'-'
asg1412
I00
sbag1
(g1991
g3
(lp2216
g898
ag5
ag625
ag645
atRp2217
(dp2218
g1410
(lp2219
S'-'
aS'-'
aS'-'
asg1412
I00
sbag1
(g1991
g3
(lp2220
g705
ag685
ag665
ag645
atRp2221
(dp2222
g1410
(lp2223
S'-'
aS'-'
aS'-'
asg1412
I00
sbag1
(g1991
g3
(lp2224
g726
ag685
ag665
ag645
atRp2225
(dp2226
g1410
(lp2227
S'-'
aS'-'
aS'-'
asg1412
I00
sbag1
(g1991
g3
(lp2228
g747
ag685
ag665
ag645
atRp2229
(dp2230
g1410
(lp2231
S'-'
aS'-'
aS'-'
asg1412
I00
sbag1
(g1991
g3
(lp2232
g309
ag60
ag5
ag898
atRp2233
(dp2234
g1410
(lp2235
S'-'
aS'-'
aS'-'
asg1412
I00
sbag1
(g1991
g3
(lp2236
g330
ag60
ag5
ag898
atRp2237
(dp2238
g1410
(lp2239
S'-'
aS'-'
aS'-'
asg1412
I00
sbag1
(g1991
g3
(lp2240
g582
ag352
ag5
ag898
atRp2241
(dp2242
g1410
(lp2243
S'-'
aS'-'
aS'-'
asg1412
I00
sbag1
(g1991
g3
(lp2244
g603
ag352
ag5
ag898
atRp2245
(dp2246
g1410
(lp2247
S'-'
aS'-'
aS'-'
asg1412
I00
sbag1
(g1991
g3
(lp2248
g855
ag625
ag5
ag898
atRp2249
(dp2250
g1410
(lp2251
S'-'
aS'-'
aS'-'
asg1412
I00
sbag1
(g1991
g3
(lp2252
g876
ag625
ag5
ag898
atRp2253
(dp2254
g1410
(lp2255
S'-'
aS'-'
aS'-'
asg1412
I00
sbag1
(g1991
g3
(lp2256
g958
ag938
ag918
ag898
atRp2257
(dp2258
g1410
(lp2259
S'-'
aS'-'
aS'-'
asg1412
I00
sbag1
(g1991
g3
(lp2260
g1042
ag938
ag918
ag898
atRp2261
(dp2262
g1410
(lp2263
S'-'
aS'-'
aS'-'
asg1412
I00
sbag1
(g1991
g3
(lp2264
g1063
ag938
ag918
ag898
atRp2265
(dp2266
g1410
(lp2267
S'-'
aS'-'
aS'-'
asg1412
I00
sbag1
(g1991
g3
(lp2268
g978
ag958
ag938
ag918
atRp2269
(dp2270
g1410
(lp2271
S'-'
aS'-'
aS'-'
asg1412
I00
sbag1
(g1991
g3
(lp2272
g999
ag958
ag938
ag918
atRp2273
(dp2274
g1410
(lp2275
S'-'
aS'-'
aS'-'
asg1412
I00
sbag1
(g1991
g3
(lp2276
g1020
ag958
ag938
ag918
atRp2277
(dp2278
g1410
(lp2279
S'-'
aS'-'
aS'-'
asg1412
I00
sbag1
(g1991
g3
(lp2280
g309
ag60
ag82
ag102
atRp2281
(dp2282
g1410
(lp2283
S'-'
aS'-'
aS'-'
asg1412
I00
sbag1
(g1991
g3
(lp2284
g330
ag60
ag82
ag102
atRp2285
(dp2286
g1410
(lp2287
S'-'
aS'-'
aS'-'
asg1412
I00
sbag1
(g1991
g3
(lp2288
g266
ag82
ag102
ag122
atRp2289
(dp2290
g1410
(lp2291
S'-'
aS'-'
aS'-'
asg1412
I00
sbag1
(g1991
g3
(lp2292
g287
ag82
ag102
ag122
atRp2293
(dp2294
g1410
(lp2295
S'-'
aS'-'
aS'-'
asg1412
I00
sbag1
(g1991
g3
(lp2296
g582
ag352
ag372
ag392
atRp2297
(dp2298
g1410
(lp2299
S'-'
aS'-'
aS'-'
asg1412
I00
sbag1
(g1991
g3
(lp2300
g603
ag352
ag372
ag392
atRp2301
(dp2302
g1410
(lp2303
S'-'
aS'-'
aS'-'
asg1412
I00
sbag1
(g1991
g3
(lp2304
g539
ag372
ag392
ag412
atRp2305
(dp2306
g1410
(lp2307
S'-'
aS'-'
aS'-'
asg1412
I00
sbag1
(g1991
g3
(lp2308
g560
ag372
ag392
ag412
atRp2309
(dp2310
g1410
(lp2311
S'-'
aS'-'
aS'-'
asg1412
I00
sbag1
(g1991
g3
(lp2312
g855
ag625
ag645
ag665
atRp2313
(dp2314
g1410
(lp2315
S'-'
aS'-'
aS'-'
asg1412
I00
sbag1
(g1991
g3
(lp2316
g876
ag625
ag645
ag665
atRp2317
(dp2318
g1410
(lp2319
S'-'
aS'-'
aS'-'
asg1412
I00
sbag1
(g1991
g3
(lp2320
g812
ag645
ag665
ag685
atRp2321
(dp2322
g1410
(lp2323
S'-'
aS'-'
aS'-'
asg1412
I00
sbag1
(g1991
g3
(lp2324
g833
ag645
ag665
ag685
atRp2325
(dp2326
g1410
(lp2327
S'-'
aS'-'
aS'-'
asg1412
I00
sbag1
(g1991
g3
(lp2328
g1128
ag898
ag918
ag938
atRp2329
(dp2330
g1410
(lp2331
S'-'
aS'-'
aS'-'
asg1412
I00
sbag1
(g1991
g3
(lp2332
g1149
ag898
ag918
ag938
atRp2333
(dp2334
g1410
(lp2335
S'-'
aS'-'
aS'-'
asg1412
I00
sbag1
(g1991
g3
(lp2336
g1085
ag918
ag938
ag958
atRp2337
(dp2338
g1410
(lp2339
S'-'
aS'-'
aS'-'
asg1412
I00
sbag1
(g1991
g3
(lp2340
g1106
ag918
ag938
ag958
atRp2341
(dp2342
g1410
(lp2343
S'-'
aS'-'
aS'-'
asg1412
I00
sbag1
(g1991
g3
(lp2344
g266
ag82
ag60
ag309
atRp2345
(dp2346
g1410
(lp2347
S'-'
aS'-'
aS'-'
asg1412
I00
sbag1
(g1991
g3
(lp2348
g287
ag82
ag60
ag309
atRp2349
(dp2350
g1410
(lp2351
S'-'
aS'-'
aS'-'
asg1412
I00
sbag1
(g1991
g3
(lp2352
g266
ag82
ag60
ag330
atRp2353
(dp2354
g1410
(lp2355
S'-'
aS'-'
aS'-'
asg1412
I00
sbag1
(g1991
g3
(lp2356
g287
ag82
ag60
ag330
atRp2357
(dp2358
g1410
(lp2359
S'-'
aS'-'
aS'-'
asg1412
I00
sbag1
(g1991
g3
(lp2360
g222
ag102
ag82
ag266
atRp2361
(dp2362
g1410
(lp2363
S'-'
aS'-'
aS'-'
asg1412
I00
sbag1
(g1991
g3
(lp2364
g244
ag102
ag82
ag266
atRp2365
(dp2366
g1410
(lp2367
S'-'
aS'-'
aS'-'
asg1412
I00
sbag1
(g1991
g3
(lp2368
g222
ag102
ag82
ag287
atRp2369
(dp2370
g1410
(lp2371
S'-'
aS'-'
aS'-'
asg1412
I00
sbag1
(g1991
g3
(lp2372
g244
ag102
ag82
ag287
atRp2373
(dp2374
g1410
(lp2375
S'-'
aS'-'
aS'-'
asg1412
I00
sbag1
(g1991
g3
(lp2376
g539
ag372
ag352
ag582
atRp2377
(dp2378
g1410
(lp2379
S'-'
aS'-'
aS'-'
asg1412
I00
sbag1
(g1991
g3
(lp2380
g560
ag372
ag352
ag582
atRp2381
(dp2382
g1410
(lp2383
S'-'
aS'-'
aS'-'
asg1412
I00
sbag1
(g1991
g3
(lp2384
g539
ag372
ag352
ag603
atRp2385
(dp2386
g1410
(lp2387
S'-'
aS'-'
aS'-'
asg1412
I00
sbag1
(g1991
g3
(lp2388
g560
ag372
ag352
ag603
atRp2389
(dp2390
g1410
(lp2391
S'-'
aS'-'
aS'-'
asg1412
I00
sbag1
(g1991
g3
(lp2392
g496
ag392
ag372
ag539
atRp2393
(dp2394
g1410
(lp2395
S'-'
aS'-'
aS'-'
asg1412
I00
sbag1
(g1991
g3
(lp2396
g517
ag392
ag372
ag539
atRp2397
(dp2398
g1410
(lp2399
S'-'
aS'-'
aS'-'
asg1412
I00
sbag1
(g1991
g3
(lp2400
g496
ag392
ag372
ag560
atRp2401
(dp2402
g1410
(lp2403
S'-'
aS'-'
aS'-'
asg1412
I00
sbag1
(g1991
g3
(lp2404
g517
ag392
ag372
ag560
atRp2405
(dp2406
g1410
(lp2407
S'-'
aS'-'
aS'-'
asg1412
I00
sbag1
(g1991
g3
(lp2408
g812
ag645
ag625
ag855
atRp2409
(dp2410
g1410
(lp2411
S'-'
aS'-'
aS'-'
asg1412
I00
sbag1
(g1991
g3
(lp2412
g833
ag645
ag625
ag855
atRp2413
(dp2414
g1410
(lp2415
S'-'
aS'-'
aS'-'
asg1412
I00
sbag1
(g1991
g3
(lp2416
g812
ag645
ag625
ag876
atRp2417
(dp2418
g1410
(lp2419
S'-'
aS'-'
aS'-'
asg1412
I00
sbag1
(g1991
g3
(lp2420
g833
ag645
ag625
ag876
atRp2421
(dp2422
g1410
(lp2423
S'-'
aS'-'
aS'-'
asg1412
I00
sbag1
(g1991
g3
(lp2424
g769
ag665
ag645
ag812
atRp2425
(dp2426
g1410
(lp2427
S'-'
aS'-'
aS'-'
asg1412
I00
sbag1
(g1991
g3
(lp2428
g790
ag665
ag645
ag812
atRp2429
(dp2430
g1410
(lp2431
S'-'
aS'-'
aS'-'
asg1412
I00
sbag1
(g1991
g3
(lp2432
g769
ag665
ag645
ag833
atRp2433
(dp2434
g1410
(lp2435
S'-'
aS'-'
aS'-'
asg1412
I00
sbag1
(g1991
g3
(lp2436
g790
ag665
ag645
ag833
atRp2437
(dp2438
g1410
(lp2439
S'-'
aS'-'
aS'-'
asg1412
I00
sbag1
(g1991
g3
(lp2440
g1085
ag918
ag898
ag1128
atRp2441
(dp2442
g1410
(lp2443
S'-'
aS'-'
aS'-'
asg1412
I00
sbag1
(g1991
g3
(lp2444
g1106
ag918
ag898
ag1128
atRp2445
(dp2446
g1410
(lp2447
S'-'
aS'-'
aS'-'
asg1412
I00
sbag1
(g1991
g3
(lp2448
g1085
ag918
ag898
ag1149
atRp2449
(dp2450
g1410
(lp2451
S'-'
aS'-'
aS'-'
asg1412
I00
sbag1
(g1991
g3
(lp2452
g1106
ag918
ag898
ag1149
atRp2453
(dp2454
g1410
(lp2455
S'-'
aS'-'
aS'-'
asg1412
I00
sbag1
(g1991
g3
(lp2456
g1042
ag938
ag918
ag1085
atRp2457
(dp2458
g1410
(lp2459
S'-'
aS'-'
aS'-'
asg1412
I00
sbag1
(g1991
g3
(lp2460
g1063
ag938
ag918
ag1085
atRp2461
(dp2462
g1410
(lp2463
S'-'
aS'-'
aS'-'
asg1412
I00
sbag1
(g1991
g3
(lp2464
g1042
ag938
ag918
ag1106
atRp2465
(dp2466
g1410
(lp2467
S'-'
aS'-'
aS'-'
asg1412
I00
sbag1
(g1991
g3
(lp2468
g1063
ag938
ag918
ag1106
atRp2469
(dp2470
g1410
(lp2471
S'-'
aS'-'
aS'-'
asg1412
I00
sbag1
(g1991
g3
(lp2472
g143
ag122
ag102
ag222
atRp2473
(dp2474
g1410
(lp2475
S'-'
aS'-'
aS'-'
asg1412
I00
sbag1
(g1991
g3
(lp2476
g179
ag122
ag102
ag222
atRp2477
(dp2478
g1410
(lp2479
S'-'
aS'-'
aS'-'
asg1412
I00
sbag1
(g1991
g3
(lp2480
g200
ag122
ag102
ag222
atRp2481
(dp2482
g1410
(lp2483
S'-'
aS'-'
aS'-'
asg1412
I00
sbag1
(g1991
g3
(lp2484
g143
ag122
ag102
ag244
atRp2485
(dp2486
g1410
(lp2487
S'-'
aS'-'
aS'-'
asg1412
I00
sbag1
(g1991
g3
(lp2488
g179
ag122
ag102
ag244
atRp2489
(dp2490
g1410
(lp2491
S'-'
aS'-'
aS'-'
asg1412
I00
sbag1
(g1991
g3
(lp2492
g200
ag122
ag102
ag244
atRp2493
(dp2494
g1410
(lp2495
S'-'
aS'-'
aS'-'
asg1412
I00
sbag1
(g1991
g3
(lp2496
g432
ag412
ag392
ag496
atRp2497
(dp2498
g1410
(lp2499
S'-'
aS'-'
aS'-'
asg1412
I00
sbag1
(g1991
g3
(lp2500
g453
ag412
ag392
ag496
atRp2501
(dp2502
g1410
(lp2503
S'-'
aS'-'
aS'-'
asg1412
I00
sbag1
(g1991
g3
(lp2504
g474
ag412
ag392
ag496
atRp2505
(dp2506
g1410
(lp2507
S'-'
aS'-'
aS'-'
asg1412
I00
sbag1
(g1991
g3
(lp2508
g432
ag412
ag392
ag517
atRp2509
(dp2510
g1410
(lp2511
S'-'
aS'-'
aS'-'
asg1412
I00
sbag1
(g1991
g3
(lp2512
g453
ag412
ag392
ag517
atRp2513
(dp2514
g1410
(lp2515
S'-'
aS'-'
aS'-'
asg1412
I00
sbag1
(g1991
g3
(lp2516
g474
ag412
ag392
ag517
atRp2517
(dp2518
g1410
(lp2519
S'-'
aS'-'
aS'-'
asg1412
I00
sbag1
(g1991
g3
(lp2520
g705
ag685
ag665
ag769
atRp2521
(dp2522
g1410
(lp2523
S'-'
aS'-'
aS'-'
asg1412
I00
sbag1
(g1991
g3
(lp2524
g726
ag685
ag665
ag769
atRp2525
(dp2526
g1410
(lp2527
S'-'
aS'-'
aS'-'
asg1412
I00
sbag1
(g1991
g3
(lp2528
g747
ag685
ag665
ag769
atRp2529
(dp2530
g1410
(lp2531
S'-'
aS'-'
aS'-'
asg1412
I00
sbag1
(g1991
g3
(lp2532
g705
ag685
ag665
ag790
atRp2533
(dp2534
g1410
(lp2535
S'-'
aS'-'
aS'-'
asg1412
I00
sbag1
(g1991
g3
(lp2536
g726
ag685
ag665
ag790
atRp2537
(dp2538
g1410
(lp2539
S'-'
aS'-'
aS'-'
asg1412
I00
sbag1
(g1991
g3
(lp2540
g747
ag685
ag665
ag790
atRp2541
(dp2542
g1410
(lp2543
S'-'
aS'-'
aS'-'
asg1412
I00
sbag1
(g1991
g3
(lp2544
g978
ag958
ag938
ag1042
atRp2545
(dp2546
g1410
(lp2547
S'-'
aS'-'
aS'-'
asg1412
I00
sbag1
(g1991
g3
(lp2548
g999
ag958
ag938
ag1042
atRp2549
(dp2550
g1410
(lp2551
S'-'
aS'-'
aS'-'
asg1412
I00
sbag1
(g1991
g3
(lp2552
g1020
ag958
ag938
ag1042
atRp2553
(dp2554
g1410
(lp2555
S'-'
aS'-'
aS'-'
asg1412
I00
sbag1
(g1991
g3
(lp2556
g978
ag958
ag938
ag1063
atRp2557
(dp2558
g1410
(lp2559
S'-'
aS'-'
aS'-'
asg1412
I00
sbag1
(g1991
g3
(lp2560
g999
ag958
ag938
ag1063
atRp2561
(dp2562
g1410
(lp2563
S'-'
aS'-'
aS'-'
asg1412
I00
sbag1
(g1991
g3
(lp2564
g1020
ag958
ag938
ag1063
atRp2565
(dp2566
g1410
(lp2567
S'-'
aS'-'
aS'-'
asg1412
I00
sbatRp2568
sS'auto_bond_cutoff'
p2569
F4
sS'use_cctbx'
p2570
I01
sS'CIFWeights'
p2571
(dp2572
g1240
F3
sg1387
F30
sS'outer_ring'
p2573
F0.050000000000000003
sS'amine'
p2574
F0.10000000000000001
sS'peptide'
p2575
F0.10000000000000001
sS'inner_ring'
p2576
F0.02
sg1241
F0.02
ssS'last'
p2577
Nsg45
S''
sS'amine_class'
p2578
g1
(g1218
g3
(ltRp2579
(dp2580
g1221
g1
(g1222
g1194
(dtRp2581
(dp2582
g1225
Nsg1226
(dp2583
sg1228
I00
sg1229
(lp2584
sg1231
(dp2585
sbsg1233
(lp2586
sbsS'G_md5'
p2587
S'f47c8e406dc6d3739f10cd1a11c04fa9'
p2588
sS'files_written'
p2589
g1
(celbow.utilities.Utilities
PushFilename
p2590
g3
(lp2591
S'/home/liuyoujia/Desktop/MTN_final_version/3ifx/TBA.pdb'
p2592
aS'/home/liuyoujia/Desktop/MTN_final_version/3ifx/TBA.cif'
p2593
atRp2594
sS'UseRestraintWeights'
p2595
I01
sS'azide_class'
p2596
g1
(g1218
g3
(ltRp2597
(dp2598
g1221
g1
(g1222
g1194
(dtRp2599
(dp2600
g1225
Nsg1226
(dp2601
sg1228
I00
sg1229
(lp2602
sg1231
(dp2603
sbsg1233
(lp2604
sbsS'SubUnitEnergies'
p2605
(dp2606
(I2
I3
I350
tp2607
F111.65105633557955
s(I4
I5
I190
tp2608
F122.92146590184595
s(I8
I9
I0
tp2609
F111.59977271575343
s(I5
I12
I260
tp2610
F112.82203567755231
s(I1
I8
I340
tp2611
F111.85792910588734
s(I8
I9
I80
tp2612
F114.61823747991549
s(I2
I3
I300
tp2613
F113.1251864742727
s(I1
I2
I70
tp2614
F115.10509436308816
s(I3
I10
I230
tp2615
F113.69002083725401
s(I7
I14
I340
tp2616
F111.60535094455226
s(I1
I6
I160
tp2617
F112.85443644835921
s(I6
I7
I70
tp2618
F113.81195912772353
s(I3
I10
I100
tp2619
F112.78909075685877
s(I1
I2
I0
tp2620
F111.59977271575342
s(I8
I9
I120
tp2621
F119.10999131121339
s(I8
I9
I350
tp2622
F111.61397565039755
s(I9
I16
I310
tp2623
F112.09420098353215
s(I5
I12
I160
tp2624
F114.06442086324401
s(I1
I4
I320
tp2625
F115.13760929457524
s(I4
I5
I20
tp2626
F111.77016175183859
s(I1
I8
I240
tp2627
F115.04584631417649
s(I8
I9
I280
tp2628
F114.15705298982384
s(I6
I7
I210
tp2629
F119.27012805998976
s(I8
I9
I140
tp2630
F118.71521794383921
s(I3
I10
I330
tp2631
F111.8071984313092
s(I1
I4
I20
tp2632
F111.75033353391684
s(I7
I14
I100
tp2633
F113.34378003393928
s(I5
I12
I130
tp2634
F113.80634655644536
s(I1
I4
I160
tp2635
F112.94287528275493
s(I7
I14
I270
tp2636
F112.5013277940556
s(I1
I4
I90
tp2637
F116.59719377635908
s(I3
I10
I260
tp2638
F113.10835283018791
s(I3
I10
I150
tp2639
F113.68688791159822
s(I1
I4
I230
tp2640
F113.67256481518982
s(I1
I2
I250
tp2641
F115.97337064668623
s(I5
I12
I120
tp2642
F113.64384120709754
s(I5
I12
I230
tp2643
F113.37713811558621
s(I3
I10
I220
tp2644
F113.82901616191774
s(I1
I8
I310
tp2645
F113.37439635859705
s(I5
I12
I10
tp2646
F111.64075673733642
s(I9
I16
I340
tp2647
F111.70328929717438
s(I8
I9
I320
tp2648
F112.14700823448163
s(I7
I14
I310
tp2649
F111.86887041551628
s(I2
I3
I30
tp2650
F111.97837005031664
s(I9
I16
I40
tp2651
F111.81391089688766
s(I1
I2
I110
tp2652
F115.34600032709575
s(I6
I7
I60
tp2653
F113.13878500561508
s(I1
I8
I20
tp2654
F111.91043056494686
s(I9
I16
I230
tp2655
F113.69233897283043
s(I6
I7
I110
tp2656
F117.10929021901059
s(I1
I2
I40
tp2657
F113.02866754918068
s(I7
I14
I20
tp2658
F111.74250398172568
s(I2
I3
I230
tp2659
F120.59821713291045
s(I1
I2
I320
tp2660
F112.60475737023262
s(I1
I6
I30
tp2661
F112.15089077745613
s(I8
I9
I170
tp2662
F121.23622172297348
s(I1
I6
I280
tp2663
F116.94285201921888
s(I6
I7
I250
tp2664
F117.87639897493625
s(I4
I5
I210
tp2665
F118.75689131602228
s(I5
I12
I150
tp2666
F114.01630130210435
s(I4
I5
I70
tp2667
F114.17325961384972
s(I1
I4
I60
tp2668
F116.64548299952023
s(I2
I3
I130
tp2669
F118.28775774029597
s(I4
I5
I140
tp2670
F120.92826564660173
s(I1
I2
I180
tp2671
F112.69020627542139
s(I1
I6
I90
tp2672
F115.93538424198869
s(I1
I8
I90
tp2673
F115.50623216814552
s(I5
I12
I220
tp2674
F113.54249803475717
s(I3
I10
I10
tp2675
F111.60105312701228
s(I7
I14
I90
tp2676
F113.10879068153957
s(I3
I10
I300
tp2677
F112.27288275044234
s(I3
I10
I190
tp2678
F114.03451128585141
s(I6
I7
I320
tp2679
F112.50467707475585
s(I3
I10
I80
tp2680
F112.42072119169877
s(I6
I7
I30
tp2681
F111.86838527936673
s(I1
I6
I100
tp2682
F115.50751005982424
s(I1
I6
I130
tp2683
F114.90678698256654
s(I6
I7
I160
tp2684
F119.94772643472173
s(I6
I7
I310
tp2685
F112.95666960633024
s(I1
I8
I260
tp2686
F115.005048580788
s(I9
I16
I0
tp2687
F111.59977271575342
s(I2
I3
I220
tp2688
F120.08584755987997
s(I4
I5
I60
tp2689
F113.44760594088174
s(I6
I7
I260
tp2690
F116.58089725523858
s(I1
I4
I130
tp2691
F116.06718329252703
s(I1
I6
I270
tp2692
F119.49617014794036
s(I9
I16
I180
tp2693
F114.0287611984603
s(I7
I14
I250
tp2694
F112.85821041504499
s(I7
I14
I160
tp2695
F114.10696179232056
s(I8
I9
I40
tp2696
F112.35843932491551
s(I1
I8
I160
tp2697
F113.04574121848033
s(I1
I8
I330
tp2698
F112.18727673348359
s(I8
I9
I220
tp2699
F119.22819688551536
s(I1
I2
I100
tp2700
F115.09708255091887
s(I9
I16
I90
tp2701
F112.60353909025882
s(I2
I3
I170
tp2702
F121.11423951289716
s(I1
I2
I220
tp2703
F114.68614617170986
s(I5
I12
I0
tp2704
F111.59977271575342
s(I2
I3
I320
tp2705
F112.28382293205367
s(I3
I10
I50
tp2706
F111.93779806100628
s(I1
I4
I10
tp2707
F111.56361897910442
s(I8
I9
I10
tp2708
F111.6680763268815
s(I4
I5
I350
tp2709
F111.66041641345485
s(I1
I4
I150
tp2710
F113.45266949187501
s(I7
I14
I230
tp2711
F113.22469648207388
s(I3
I10
I120
tp2712
F113.17535156168441
s(I1
I8
I60
tp2713
F114.6033535690119
s(I1
I6
I230
tp2714
F114.15160092362335
s(I1
I4
I290
tp2715
F115.82793311130096
s(I1
I8
I230
tp2716
F114.57032668113401
s(I1
I4
I220
tp2717
F113.13544326145384
s(I6
I7
I220
tp2718
F118.53963849747512
s(I7
I14
I60
tp2719
F112.40848861473509
s(I1
I6
I170
tp2720
F112.6618215792875
s(I1
I2
I10
tp2721
F111.73486393686977
s(I4
I5
I160
tp2722
F120.24681494370566
s(I4
I5
I250
tp2723
F116.98022580083709
s(I4
I5
I110
tp2724
F117.65327764013499
s(I8
I9
I290
tp2725
F113.49703684868123
s(I8
I9
I150
tp2726
F119.1743878388946
s(I1
I6
I300
tp2727
F116.7606703004972
s(I1
I4
I340
tp2728
F112.42414988251139
s(I1
I2
I150
tp2729
F113.02833467702938
s(I9
I16
I330
tp2730
F111.80571319148866
s(I7
I14
I260
tp2731
F112.67772854391406
s(I6
I7
I280
tp2732
F114.76794308522948
s(I1
I6
I240
tp2733
F115.28099422392495
s(I1
I2
I80
tp2734
F114.9828875406257
s(I5
I12
I190
tp2735
F113.92944239490082
s(I1
I8
I10
tp2736
F111.67884494985449
s(I6
I7
I120
tp2737
F118.1970039139601
s(I4
I5
I80
tp2738
F114.95058221666487
s(I1
I8
I300
tp2739
F114.36042305079681
s(I1
I6
I70
tp2740
F117.80205823534847
s(I9
I16
I280
tp2741
F112.67137229427851
s(I1
I4
I190
tp2742
F112.50290457104805
s(I6
I7
I130
tp2743
F119.48738661404576
s(I9
I16
I150
tp2744
F113.70425664876275
s(I2
I3
I0
tp2745
F111.59977271575342
s(I8
I9
I60
tp2746
F113.28741459057179
s(I4
I5
I30
tp2747
F112.01071716902622
s(I2
I3
I90
tp2748
F115.1776138052915
s(I7
I14
I330
tp2749
F111.66249888758975
s(I3
I10
I320
tp2750
F111.9383900556776
s(I3
I10
I210
tp2751
F113.93601966440745
s(I2
I3
I140
tp2752
F118.25138506352988
s(I5
I12
I290
tp2753
F112.26915002680249
s(I1
I2
I330
tp2754
F112.08778819627403
s(I1
I4
I80
tp2755
F117.92671580671821
s(I4
I5
I260
tp2756
F115.99899692427024
s(I1
I6
I0
tp2757
F111.59977271575342
s(I2
I3
I310
tp2758
F112.65352771707522
s(I3
I10
I140
tp2759
F113.53588540980789
s(I7
I14
I220
tp2760
F113.40057029192405
s(I4
I5
I300
tp2761
F113.34385675165255
s(I2
I3
I250
tp2762
F117.48319408469595
s(I9
I16
I120
tp2763
F113.18547641930941
s(I1
I2
I190
tp2764
F112.81684473341643
s(I1
I8
I80
tp2765
F115.60666808080029
s(I1
I6
I140
tp2766
F113.88268900132776
s(I6
I7
I80
tp2767
F114.56874606812171
s(I7
I14
I80
tp2768
F112.86949888194344
s(I1
I2
I120
tp2769
F114.97816790528057
s(I1
I6
I310
tp2770
F117.10522917521807
s(I6
I7
I330
tp2771
F112.14609706554184
s(I8
I9
I90
tp2772
F115.46113927067451
s(I1
I6
I110
tp2773
F115.61139632629313
s(I5
I12
I210
tp2774
F113.6876919037116
s(I6
I7
I170
tp2775
F120.35965079079467
s(I2
I3
I40
tp2776
F112.28704647693456
s(I4
I5
I130
tp2777
F120.53386752010276
s(I5
I12
I70
tp2778
F112.54983985185092
s(I3
I10
I290
tp2779
F112.46793639056784
s(I1
I8
I150
tp2780
F113.4429059353334
s(I1
I4
I140
tp2781
F114.33758411235854
s(I1
I2
I260
tp2782
F115.85577040727
s(I9
I16
I300
tp2783
F112.27189486257257
s(I1
I4
I280
tp2784
F116.16095605759688
s(I9
I16
I170
tp2785
F113.95735661304232
s(I3
I10
I250
tp2786
F113.3213859144259
s(I1
I4
I50
tp2787
F114.12347324229326
s(I7
I14
I10
tp2788
F111.65312782132565
s(I1
I4
I350
tp2789
F111.87065845313141
s(I7
I14
I300
tp2790
F112.0079564059365
s(I7
I14
I190
tp2791
F113.87408993989342
s(I3
I10
I0
tp2792
F111.59977271575342
s(I1
I4
I120
tp2793
F118.57444612064782
s(I1
I6
I340
tp2794
F112.3933899154421
s(I1
I6
I40
tp2795
F112.74896167968964
s(I3
I10
I180
tp2796
F114.00625755503108
s(I1
I8
I320
tp2797
F112.67662361950747
s(I1
I8
I50
tp2798
F113.64170394268676
s(I8
I9
I230
tp2799
F119.4559516791881
s(I2
I3
I120
tp2800
F118.15382262471238
s(I1
I2
I50
tp2801
F113.82478675677605
s(I4
I5
I120
tp2802
F118.99528885888074
s(I5
I12
I350
tp2803
F111.59672371965216
s(I9
I16
I80
tp2804
F112.42084572672863
s(I7
I14
I50
tp2805
F112.20211215885061
s(I8
I9
I160
tp2806
F120.20589975303338
s(I6
I7
I90
tp2807
F115.36221546767069
s(I8
I9
I20
tp2808
F111.81589727311041
s(I2
I3
I50
tp2809
F112.69382036585171
s(I8
I9
I50
tp2810
F112.77125802846426
s(I1
I6
I350
tp2811
F111.85048871448349
s(I4
I5
I290
tp2812
F113.92402810705946
s(I3
I10
I70
tp2813
F112.24728115600151
s(I2
I3
I280
tp2814
F114.41033173416966
s(I3
I10
I280
tp2815
F112.67542683433565
s(I1
I8
I220
tp2816
F113.81396279287027
s(I5
I12
I280
tp2817
F112.45051757748445
s(I5
I12
I250
tp2818
F113.00928663271795
s(I8
I9
I310
tp2819
F112.49387898320953
s(I5
I12
I110
tp2820
F113.44797779601113
s(I4
I5
I320
tp2821
F112.39195628243536
s(I1
I2
I300
tp2822
F114.53061022816573
s(I5
I12
I180
tp2823
F114.01886723680499
s(I4
I5
I220
tp2824
F118.28889439107627
s(I6
I7
I0
tp2825
F111.59977271575345
s(I8
I9
I300
tp2826
F112.94153280417731
s(I4
I5
I270
tp2827
F115.21622094113796
s(I1
I8
I120
tp2828
F116.26311889403381
s(I3
I10
I350
tp2829
F111.63489069707931
s(I3
I10
I40
tp2830
F111.81107085220022
s(I1
I8
I290
tp2831
F115.50494601857842
s(I1
I4
I0
tp2832
F111.59977271575342
s(I9
I16
I30
tp2833
F111.71283637213568
s(I7
I14
I120
tp2834
F113.76268284964712
s(I5
I12
I140
tp2835
F113.93006005706769
s(I9
I16
I320
tp2836
F111.93737114216052
s(I6
I7
I150
tp2837
F120.2004330847877
s(I6
I7
I140
tp2838
F120.41528234016214
s(I1
I4
I70
tp2839
F120.23106008216929
s(I1
I6
I250
tp2840
F117.82295162646331
s(I1
I2
I90
tp2841
F114.92290051447181
s(I1
I4
I210
tp2842
F112.78872543274721
s(I2
I3
I180
tp2843
F124.49759882440776
s(I4
I5
I310
tp2844
F112.82517907127989
s(I1
I8
I0
tp2845
F111.59977271575343
s(I4
I5
I170
tp2846
F121.23481345187618
s(I5
I12
I30
tp2847
F111.8294286382413
s(I1
I8
I190
tp2848
F112.77801948033965
s(I5
I12
I300
tp2849
F112.09712926974665
s(I2
I3
I10
tp2850
F111.636979824901
s(I8
I9
I200
tp2851
F119.65137067178516
s(I3
I10
I110
tp2852
F112.98125046640682
s(I9
I16
I220
tp2853
F113.83380894810007
s(I7
I14
I320
tp2854
F111.75189225406
s(I6
I7
I270
tp2855
F115.55518371162961
s(I7
I14
I210
tp2856
F113.56695003240459
s(I1
I2
I230
tp2857
F116.12863367233707
s(I1
I6
I180
tp2858
F112.59664495568909
s(I9
I16
I110
tp2859
F112.98932765818812
s(I1
I2
I160
tp2860
F112.78944482104762
s(I1
I8
I70
tp2861
F115.44691308438571
s(I8
I9
I330
tp2862
F111.88874660865548
s(I2
I3
I110
tp2863
F117.14907896543816
s(I1
I6
I10
tp2864
F111.58421433696031
s(I6
I7
I40
tp2865
F112.16925771042889
s(I5
I12
I80
tp2866
F112.77446780289107
s(I4
I5
I0
tp2867
F111.59977271575342
s(I9
I16
I270
tp2868
F112.88399549124208
s(I6
I7
I340
tp2869
F111.87902845776179
s(I1
I4
I270
tp2870
F117.53166638240464
s(I1
I2
I20
tp2871
F112.00828771858488
s(I4
I5
I90
tp2872
F115.74589319037318
s(I1
I4
I40
tp2873
F112.89559314997483
s(I1
I4
I180
tp2874
F112.51948629178152
s(I6
I7
I180
tp2875
F122.00899471984252
s(I6
I7
I20
tp2876
F111.67771471407552
s(I3
I10
I30
tp2877
F111.70970769026152
s(I1
I4
I110
tp2878
F117.64599047728476
s(I3
I10
I130
tp2879
F113.36363739249268
s(I1
I4
I250
tp2880
F116.10415526218259
s(I1
I2
I290
tp2881
F116.2514730698874
s(I8
I9
I240
tp2882
F118.38477448825024
s(I3
I10
I200
tp2883
F114.0080333100784
s(I1
I6
I80
tp2884
F117.30766302661506
s(I9
I16
I160
tp2885
F113.8435828926316
s(I7
I14
I290
tp2886
F112.16327070222201
s(I7
I14
I140
tp2887
F114.02571735252427
s(I2
I3
I200
tp2888
F120.74696489866571
s(I1
I8
I140
tp2889
F114.1318217524076
s(I8
I9
I260
tp2890
F115.78925526505338
s(I1
I2
I270
tp2891
F116.28683268613688
s(I1
I6
I220
tp2892
F113.4633255143804
s(I1
I6
I200
tp2893
F112.75577317442774
s(I5
I12
I100
tp2894
F113.23079362321717
s(I9
I16
I70
tp2895
F112.24732930874767
s(I7
I14
I0
tp2896
F111.59977271575342
s(I1
I2
I200
tp2897
F113.116812027015
s(I7
I14
I180
tp2898
F113.99864463085018
s(I5
I12
I320
tp2899
F111.80802486352594
s(I9
I16
I60
tp2900
F112.08569691754636
s(I1
I8
I40
tp2901
F112.87449783501388
s(I9
I16
I250
tp2902
F113.31332077446069
s(I6
I7
I300
tp2903
F113.49246663517661
s(I1
I2
I60
tp2904
F114.70316787872596
s(I1
I8
I210
tp2905
F113.25095600639902
s(I2
I3
I150
tp2906
F118.61274100293346
s(I1
I6
I210
tp2907
F113.01846811809611
s(I4
I5
I280
tp2908
F114.54499881683253
s(I5
I12
I200
tp2909
F113.81595206684419
s(I1
I2
I340
tp2910
F111.76353051037111
s(I8
I9
I30
tp2911
F112.04353113172321
s(I7
I14
I70
tp2912
F112.63338903418713
s(I3
I10
I170
tp2913
F113.92862202615079
s(I1
I6
I320
tp2914
F115.0996675703111
s(I6
I7
I230
tp2915
F118.40668117709684
s(I9
I16
I140
tp2916
F113.54754791575677
s(I2
I3
I100
tp2917
F116.04456412400393
s(I3
I10
I240
tp2918
F113.51900626828571
s(I1
I4
I200
tp2919
F112.58802015007151
s(I1
I6
I120
tp2920
F115.74067391275688
s(I1
I2
I140
tp2921
F113.45226708656067
s(I1
I8
I110
tp2922
F116.05280488765112
s(I1
I6
I150
tp2923
F113.22924553376538
s(I4
I5
I180
tp2924
F124.10557509640373
s(I5
I12
I40
tp2925
F111.9719387476169
s(I1
I2
I130
tp2926
F114.1266209483975
s(I4
I5
I40
tp2927
F112.36239789204902
s(I5
I12
I270
tp2928
F112.63571108544417
s(I6
I7
I10
tp2929
F111.59059503473506
s(I5
I12
I340
tp2930
F111.63176732301916
s(I6
I7
I290
tp2931
F114.09620832436556
s(I1
I8
I280
tp2932
F115.75894060639334
s(I9
I16
I20
tp2933
F111.6410568299945
s(I7
I14
I280
tp2934
F112.32916959611936
s(I2
I3
I330
tp2935
F111.99820808183006
s(I9
I16
I210
tp2936
F113.93939275208668
s(I2
I3
I190
tp2937
F123.58402889114485
s(I8
I9
I100
tp2938
F116.55541830886423
s(I5
I12
I240
tp2939
F113.19631060512101
s(I2
I3
I340
tp2940
F111.78643083941604
s(I1
I4
I30
tp2941
F112.17424682455425
s(I1
I6
I50
tp2942
F113.6778708115274
s(I7
I14
I150
tp2943
F114.08748425662982
s(I4
I5
I330
tp2944
F112.0547658740845
s(I1
I8
I180
tp2945
F112.75620202217321
s(I1
I4
I170
tp2946
F112.65308550058641
s(I1
I8
I350
tp2947
F111.66305008477214
s(I1
I4
I310
tp2948
F116.86155664698585
s(I3
I10
I270
tp2949
F112.89062147614764
s(I5
I12
I170
tp2950
F114.06695544126978
s(I7
I14
I350
tp2951
F111.58385427640063
s(I7
I14
I40
tp2952
F112.01983829833712
s(I1
I6
I190
tp2953
F112.6274003339127
s(I3
I10
I340
tp2954
F111.70493125372536
s(I9
I16
I100
tp2955
F112.79372406236961
s(I1
I2
I170
tp2956
F112.68527161717796
s(I5
I12
I310
tp2957
F111.94122550235626
s(I4
I5
I230
tp2958
F118.23644129946328
s(I5
I12
I90
tp2959
F113.00368243996323
s(I6
I7
I50
tp2960
F112.58937713561535
s(I1
I8
I250
tp2961
F115.01151888376037
s(I9
I16
I260
tp2962
F113.09969994939043
s(I6
I7
I200
tp2963
F120.88472853363682
s(I6
I7
I350
tp2964
F111.69748234862607
s(I8
I9
I130
tp2965
F118.82594097711022
s(I5
I12
I50
tp2966
F112.14245573772122
s(I5
I12
I20
tp2967
F111.71810793102588
s(I2
I3
I240
tp2968
F119.34635036345975
s(I6
I7
I190
tp2969
F123.22317662588567
s(I7
I14
I130
tp2970
F113.91841049945276
s(I1
I2
I310
tp2971
F113.37089009839036
s(I1
I8
I130
tp2972
F115.23796052411397
s(I1
I6
I290
tp2973
F116.38182972673737
s(I8
I9
I340
tp2974
F111.71114421464094
s(I2
I3
I70
tp2975
F113.78714161296996
s(I1
I2
I240
tp2976
F116.52056225822493
s(I8
I9
I250
tp2977
F116.8946925587519
s(I8
I9
I110
tp2978
F118.06025717104383
s(I9
I16
I350
tp2979
F111.63374366095132
s(I2
I3
I20
tp2980
F111.76299121611633
s(I4
I5
I150
tp2981
F120.31302663741548
s(I9
I16
I50
tp2982
F111.93974808986061
s(I3
I10
I310
tp2983
F112.09492042993382
s(I4
I5
I10
tp2984
F111.63461861190228
s(I8
I9
I270
tp2985
F114.91445390036975
s(I3
I10
I90
tp2986
F112.60190413860749
s(I1
I8
I30
tp2987
F112.30443010874805
s(I1
I4
I260
tp2988
F118.48000067437358
s(I8
I9
I190
tp2989
F120.98310661635777
s(I6
I7
I100
tp2990
F116.19252682063751
s(I7
I14
I30
tp2991
F111.86562531593701
s(I2
I3
I290
tp2992
F113.71062617597775
s(I1
I4
I330
tp2993
F113.40314158839651
s(I3
I10
I20
tp2994
F111.63843694176168
s(I1
I4
I100
tp2995
F116.5628995378806
s(I1
I6
I20
tp2996
F111.7716075597498
s(I4
I5
I50
tp2997
F112.83752540931783
s(I1
I4
I240
tp2998
F114.52341743523836
s(I6
I7
I240
tp2999
F118.5598740931954
s(I7
I14
I200
tp3000
F113.72552095017667
s(I9
I16
I240
tp3001
F113.51542941069773
s(I1
I8
I200
tp3002
F112.92549434735575
s(I5
I12
I60
tp3003
F112.3369114274289
s(I9
I16
I130
tp3004
F113.37397452508165
s(I8
I9
I180
tp3005
F121.86284048403859
s(I1
I2
I350
tp3006
F111.60573872724045
s(I1
I6
I330
tp3007
F113.366255031978
s(I7
I14
I240
tp3008
F113.04191341660328
s(I8
I9
I210
tp3009
F119.1324717727794
s(I1
I2
I280
tp3010
F117.0978960170267
s(I2
I3
I260
tp3011
F116.19533206232259
s(I9
I16
I290
tp3012
F112.46586199025309
s(I1
I8
I100
tp3013
F115.61868687386446
s(I2
I3
I60
tp3014
F113.19764755052884
s(I1
I8
I270
tp3015
F115.27478858575066
s(I9
I16
I10
tp3016
F111.60248773485944
s(I4
I5
I340
tp3017
F111.81218067716885
s(I2
I3
I80
tp3018
F114.44617112696379
s(I1
I2
I30
tp3019
F112.43157621854814
s(I4
I5
I200
tp3020
F120.01424951686263
s(I1
I4
I300
tp3021
F116.26423695700935
s(I1
I6
I260
tp3022
F123.67088429977812
s(I9
I16
I190
tp3023
F114.04554860699744
s(I7
I14
I170
tp3024
F114.07921467536778
s(I3
I10
I60
tp3025
F112.08484407131236
s(I1
I6
I60
tp3026
F115.30282333421231
s(I2
I3
I210
tp3027
F119.95217901165053
s(I3
I10
I160
tp3028
F113.81817637821538
s(I1
I8
I170
tp3029
F112.83756370710651
s(I2
I3
I270
tp3030
F115.22540305635214
s(I4
I5
I240
tp3031
F117.9462111844738
s(I7
I14
I110
tp3032
F113.56607125764268
s(I9
I16
I200
tp3033
F114.01173168035295
s(I4
I5
I100
tp3034
F116.61201763628152
s(I5
I12
I330
tp3035
F111.70330433725599
s(I8
I9
I70
tp3036
F113.90376093591793
s(I2
I3
I160
tp3037
F119.48548503955202
s(I1
I2
I210
tp3038
F113.68253315060436
ssS'lines'
p3039
S'data_TBA\n#\n_chem_comp.id                                    TBA\n_chem_comp.name                                  "TETRABUTYLAMMONIUM ION"\n_chem_comp.type                                  NON-POLYMER\n_chem_comp.pdbx_type                             HETAIN\n_chem_comp.formula                               "C16 H36 N"\n_chem_comp.mon_nstd_parent_comp_id               ?\n_chem_comp.pdbx_synonyms                         ?\n_chem_comp.pdbx_formal_charge                    1\n_chem_comp.pdbx_initial_date                     2001-05-24\n_chem_comp.pdbx_modified_date                    2011-06-04\n_chem_comp.pdbx_ambiguous_flag                   N\n_chem_comp.pdbx_release_status                   REL\n_chem_comp.pdbx_replaced_by                      ?\n_chem_comp.pdbx_replaces                         ?\n_chem_comp.formula_weight                        242.464\n_chem_comp.one_letter_code                       ?\n_chem_comp.three_letter_code                     TBA\n_chem_comp.pdbx_model_coordinates_details        ?\n_chem_comp.pdbx_model_coordinates_missing_flag   Y\n_chem_comp.pdbx_ideal_coordinates_details        ?\n_chem_comp.pdbx_ideal_coordinates_missing_flag   N\n_chem_comp.pdbx_model_coordinates_db_code        1JVM\n_chem_comp.pdbx_subcomponent_list                ?\n_chem_comp.pdbx_processing_site                  PDBJ\n#\nloop_\n_chem_comp_atom.comp_id\n_chem_comp_atom.atom_id\n_chem_comp_atom.alt_atom_id\n_chem_comp_atom.type_symbol\n_chem_comp_atom.charge\n_chem_comp_atom.pdbx_align\n_chem_comp_atom.pdbx_aromatic_flag\n_chem_comp_atom.pdbx_leaving_atom_flag\n_chem_comp_atom.pdbx_stereo_config\n_chem_comp_atom.model_Cartn_x\n_chem_comp_atom.model_Cartn_y\n_chem_comp_atom.model_Cartn_z\n_chem_comp_atom.pdbx_model_Cartn_x_ideal\n_chem_comp_atom.pdbx_model_Cartn_y_ideal\n_chem_comp_atom.pdbx_model_Cartn_z_ideal\n_chem_comp_atom.pdbx_component_atom_id\n_chem_comp_atom.pdbx_component_comp_id\n_chem_comp_atom.pdbx_ordinal\nTBA N1   N1   N 1 1 N N N 72.786 26.897 23.103 2.259  -0.570 -4.564 N1   TBA 1\nTBA C11  C11  C 0 1 N N N 73.180 28.381 22.727 1.174  0.278  -4.013 C11  TBA 2\nTBA C12  C12  C 0 1 N N N 74.701 28.679 22.711 1.707  1.057  -2.820 C12  TBA 3\nTBA C21  C21  C 0 1 N N N 73.672 26.028 22.092 3.446  0.290  -5.020 C21  TBA 4\nTBA C22  C22  C 0 1 N N N 73.488 24.473 22.217 2.978  1.255  -6.099 C22  TBA 5\nTBA C31  C31  C 0 1 N N N 71.239 26.755 23.192 1.763  -1.376 -5.772 C31  TBA 6\nTBA C32  C32  C 0 1 N N N 70.377 27.839 24.023 2.904  -2.230 -6.305 C32  TBA 7\nTBA C41  C41  C 0 1 N N N 73.405 26.586 24.553 2.768  -1.561 -3.507 C41  TBA 8\nTBA C42  C42  C 0 1 N N N 72.990 27.410 25.937 1.617  -2.455 -3.067 C42  TBA 9\nTBA C13  C13  C 0 1 N N N ?      ?      ?      0.609  1.913  -2.189 C13  TBA 10\nTBA C14  C14  C 0 1 N N N ?      ?      ?      1.121  2.669  -0.974 C14  TBA 11\nTBA C23  C23  C 0 1 N N N ?      ?      ?      4.138  2.103  -6.618 C23  TBA 12\nTBA C24  C24  C 0 1 N N N ?      ?      ?      3.689  3.046  -7.722 C24  TBA 13\nTBA C33  C33  C 0 1 N N N ?      ?      ?      2.469  -3.018 -7.540 C33  TBA 14\nTBA C34  C34  C 0 1 N N N ?      ?      ?      3.612  -3.847 -8.103 C34  TBA 15\nTBA C43  C43  C 0 1 N N N ?      ?      ?      2.066  -3.430 -1.979 C43  TBA 16\nTBA C44  C44  C 0 1 N N N ?      ?      ?      0.915  -4.304 -1.506 C44  TBA 17\nTBA H111 1H11 H 0 0 N N N 72.792 28.582 21.718 0.358  -0.394 -3.732 H111 TBA 18\nTBA H112 2H11 H 0 0 N N N 72.749 29.021 23.511 0.846  0.938  -4.821 H112 TBA 19\nTBA H121 1H12 H 0 0 N N N 75.656 29.224 22.698 2.538  1.700  -3.137 H121 TBA 20\nTBA H122 2H12 H 0 0 N N N 75.762 28.722 22.999 2.107  0.362  -2.071 H122 TBA 21\nTBA H211 1H21 H 0 0 N N N 73.390 26.316 21.069 4.213  -0.398 -5.390 H211 TBA 22\nTBA H212 2H21 H 0 0 N N N 74.723 26.238 22.341 3.818  0.814  -4.134 H212 TBA 23\nTBA H221 1H22 H 0 0 N N N 74.229 23.982 21.568 2.195  1.910  -5.697 H221 TBA 24\nTBA H222 2H22 H 0 0 N N N 73.624 24.204 23.275 2.531  0.695  -6.930 H222 TBA 25\nTBA H311 1H31 H 0 0 N N N 70.868 26.798 22.157 1.411  -0.652 -6.514 H311 TBA 26\nTBA H312 2H31 H 0 0 N N N 71.095 25.821 23.755 0.923  -1.985 -5.425 H312 TBA 27\nTBA H321 1H32 H 0 0 N N N 70.534 27.815 25.111 3.243  -2.925 -5.527 H321 TBA 28\nTBA H322 2H32 H 0 0 N N N 70.591 28.904 23.847 3.759  -1.591 -6.559 H322 TBA 29\nTBA H411 1H41 H 0 0 N N N 73.137 25.539 24.756 3.165  -0.967 -2.679 H411 TBA 30\nTBA H412 2H41 H 0 0 N N N 74.451 26.899 24.417 3.576  -2.133 -3.972 H412 TBA 31\nTBA H421 1H42 H 0 0 N N N 73.396 27.129 26.920 1.232  -3.016 -3.927 H421 TBA 32\nTBA H422 2H42 H 0 0 N N N 73.249 28.451 26.181 0.791  -1.839 -2.690 H422 TBA 33\nTBA H131 1H13 H 0 0 N N N ?      ?      ?      -0.232 1.277  -1.889 H131 TBA 34\nTBA H132 2H13 H 0 0 N N N ?      ?      ?      0.228  2.630  -2.925 H132 TBA 35\nTBA H141 1H14 H 0 0 N N N ?      ?      ?      1.943  3.339  -1.246 H141 TBA 36\nTBA H142 2H14 H 0 0 N N N ?      ?      ?      1.481  1.978  -0.204 H142 TBA 37\nTBA H143 3H14 H 0 0 N N N ?      ?      ?      0.320  3.274  -0.539 H143 TBA 38\nTBA H231 1H23 H 0 0 N N N ?      ?      ?      4.932  1.452  -7.002 H231 TBA 39\nTBA H232 2H23 H 0 0 N N N ?      ?      ?      4.568  2.689  -5.797 H232 TBA 40\nTBA H241 1H24 H 0 0 N N N ?      ?      ?      2.917  3.733  -7.361 H241 TBA 41\nTBA H242 2H24 H 0 0 N N N ?      ?      ?      3.283  2.489  -8.573 H242 TBA 42\nTBA H243 3H24 H 0 0 N N N ?      ?      ?      4.535  3.643  -8.078 H243 TBA 43\nTBA H331 1H33 H 0 0 N N N ?      ?      ?      2.110  -2.329 -8.314 H331 TBA 44\nTBA H332 2H33 H 0 0 N N N ?      ?      ?      1.635  -3.681 -7.284 H332 TBA 45\nTBA H341 1H34 H 0 0 N N N ?      ?      ?      3.974  -4.570 -7.364 H341 TBA 46\nTBA H342 2H34 H 0 0 N N N ?      ?      ?      4.451  -3.209 -8.399 H342 TBA 47\nTBA H343 3H34 H 0 0 N N N ?      ?      ?      3.279  -4.402 -8.986 H343 TBA 48\nTBA H431 1H43 H 0 0 N N N ?      ?      ?      2.471  -2.875 -1.125 H431 TBA 49\nTBA H432 2H43 H 0 0 N N N ?      ?      ?      2.870  -4.070 -2.361 H432 TBA 50\nTBA H441 1H44 H 0 0 N N N ?      ?      ?      0.508  -4.898 -2.331 H441 TBA 51\nTBA H442 2H44 H 0 0 N N N ?      ?      ?      0.107  -3.696 -1.087 H442 TBA 52\nTBA H443 3H44 H 0 0 N N N ?      ?      ?      1.259  -4.994 -0.728 H443 TBA 53\n#\nloop_\n_chem_comp_bond.comp_id\n_chem_comp_bond.atom_id_1\n_chem_comp_bond.atom_id_2\n_chem_comp_bond.value_order\n_chem_comp_bond.pdbx_aromatic_flag\n_chem_comp_bond.pdbx_stereo_config\n_chem_comp_bond.pdbx_ordinal\nTBA N1  C11  SING N N 1\nTBA N1  C21  SING N N 2\nTBA N1  C31  SING N N 3\nTBA N1  C41  SING N N 4\nTBA C11 C12  SING N N 5\nTBA C11 H111 SING N N 6\nTBA C11 H112 SING N N 7\nTBA C12 C13  SING N N 8\nTBA C12 H121 SING N N 9\nTBA C12 H122 SING N N 10\nTBA C21 C22  SING N N 11\nTBA C21 H211 SING N N 12\nTBA C21 H212 SING N N 13\nTBA C22 C23  SING N N 14\nTBA C22 H221 SING N N 15\nTBA C22 H222 SING N N 16\nTBA C31 C32  SING N N 17\nTBA C31 H311 SING N N 18\nTBA C31 H312 SING N N 19\nTBA C32 C33  SING N N 20\nTBA C32 H321 SING N N 21\nTBA C32 H322 SING N N 22\nTBA C41 C42  SING N N 23\nTBA C41 H411 SING N N 24\nTBA C41 H412 SING N N 25\nTBA C42 C43  SING N N 26\nTBA C42 H421 SING N N 27\nTBA C42 H422 SING N N 28\nTBA C13 C14  SING N N 29\nTBA C13 H131 SING N N 30\nTBA C13 H132 SING N N 31\nTBA C14 H141 SING N N 32\nTBA C14 H142 SING N N 33\nTBA C14 H143 SING N N 34\nTBA C23 C24  SING N N 35\nTBA C23 H231 SING N N 36\nTBA C23 H232 SING N N 37\nTBA C24 H241 SING N N 38\nTBA C24 H242 SING N N 39\nTBA C24 H243 SING N N 40\nTBA C33 C34  SING N N 41\nTBA C33 H331 SING N N 42\nTBA C33 H332 SING N N 43\nTBA C34 H341 SING N N 44\nTBA C34 H342 SING N N 45\nTBA C34 H343 SING N N 46\nTBA C43 C44  SING N N 47\nTBA C43 H431 SING N N 48\nTBA C43 H432 SING N N 49\nTBA C44 H441 SING N N 50\nTBA C44 H442 SING N N 51\nTBA C44 H443 SING N N 52\n#\nloop_\n_pdbx_chem_comp_descriptor.comp_id\n_pdbx_chem_comp_descriptor.type\n_pdbx_chem_comp_descriptor.program\n_pdbx_chem_comp_descriptor.program_version\n_pdbx_chem_comp_descriptor.descriptor\nTBA SMILES           ACDLabs              10.04 "CCCC[N+](CCCC)(CCCC)CCCC"\nTBA SMILES_CANONICAL CACTVS               3.341 "CCCC[N+](CCCC)(CCCC)CCCC"\nTBA SMILES           CACTVS               3.341 "CCCC[N+](CCCC)(CCCC)CCCC"\nTBA SMILES_CANONICAL "OpenEye OEToolkits" 1.5.0 "CCCC[N+](CCCC)(CCCC)CCCC"\nTBA SMILES           "OpenEye OEToolkits" 1.5.0 "CCCC[N+](CCCC)(CCCC)CCCC"\nTBA InChI            InChI                1.03  "InChI=1S/C16H36N/c1-5-9-13-17(14-10-6-2,15-11-7-3)16-12-8-4/h5-16H2,1-4H3/q+1"\nTBA InChIKey         InChI                1.03  DZLFLBLQUQXARW-UHFFFAOYSA-N\n#\nloop_\n_pdbx_chem_comp_identifier.comp_id\n_pdbx_chem_comp_identifier.type\n_pdbx_chem_comp_identifier.program\n_pdbx_chem_comp_identifier.program_version\n_pdbx_chem_comp_identifier.identifier\nTBA "SYSTEMATIC NAME" ACDLabs              10.04 N,N,N-tributylbutan-1-aminium\nTBA "SYSTEMATIC NAME" "OpenEye OEToolkits" 1.5.0 tetrabutylazanium\n#\nloop_\n_pdbx_chem_comp_audit.comp_id\n_pdbx_chem_comp_audit.action_type\n_pdbx_chem_comp_audit.date\n_pdbx_chem_comp_audit.processing_site\nTBA "Create component"  2001-05-24 PDBJ\nTBA "Modify descriptor" 2011-06-04 RCSB\n#\n'
p3040
sS'ALT_dihedrals'
p3041
g1
(g1402
g3
(lp3042
g1
(g1991
g3
(lp3043
g82
ag60
ag5
ag352
atRp3044
(dp3045
g1410
(lp3046
S''
aS''
aS''
asg1412
I00
sbag1
(g1991
g3
(lp3047
g60
ag5
ag352
ag372
atRp3048
(dp3049
g1410
(lp3050
S''
aS''
aS''
asg1412
I00
sbag1
(g1991
g3
(lp3051
g82
ag60
ag5
ag625
atRp3052
(dp3053
g1410
(lp3054
S''
aS''
aS''
asg1412
I00
sbag1
(g1991
g3
(lp3055
g372
ag352
ag5
ag625
atRp3056
(dp3057
g1410
(lp3058
S''
aS''
aS''
asg1412
I00
sbag1
(g1991
g3
(lp3059
g60
ag5
ag625
ag645
atRp3060
(dp3061
g1410
(lp3062
S''
aS''
aS''
asg1412
I00
sbag1
(g1991
g3
(lp3063
g352
ag5
ag625
ag645
atRp3064
(dp3065
g1410
(lp3066
S''
aS''
aS''
asg1412
I00
sbag1
(g1991
g3
(lp3067
g82
ag60
ag5
ag898
atRp3068
(dp3069
g1410
(lp3070
S''
aS''
aS''
asg1412
I00
sbag1
(g1991
g3
(lp3071
g372
ag352
ag5
ag898
atRp3072
(dp3073
g1410
(lp3074
S''
aS''
aS''
asg1412
I00
sbag1
(g1991
g3
(lp3075
g645
ag625
ag5
ag898
atRp3076
(dp3077
g1410
(lp3078
S''
aS''
aS''
asg1412
I00
sbag1
(g1991
g3
(lp3079
g60
ag5
ag898
ag918
atRp3080
(dp3081
g1410
(lp3082
S''
aS''
aS''
asg1412
I00
sbag1
(g1991
g3
(lp3083
g352
ag5
ag898
ag918
atRp3084
(dp3085
g1410
(lp3086
S''
aS''
aS''
asg1412
I00
sbag1
(g1991
g3
(lp3087
g625
ag5
ag898
ag918
atRp3088
(dp3089
g1410
(lp3090
S''
aS''
aS''
asg1412
I00
sbag1
(g1991
g3
(lp3091
g5
ag60
ag82
ag102
atRp3092
(dp3093
g1410
(lp3094
S''
aS''
aS''
asg1412
I00
sbag1
(g1991
g3
(lp3095
g60
ag82
ag102
ag122
atRp3096
(dp3097
g1410
(lp3098
S''
aS''
aS''
asg1412
I00
sbag1
(g1991
g3
(lp3099
g5
ag352
ag372
ag392
atRp3100
(dp3101
g1410
(lp3102
S''
aS''
aS''
asg1412
I00
sbag1
(g1991
g3
(lp3103
g352
ag372
ag392
ag412
atRp3104
(dp3105
g1410
(lp3106
S''
aS''
aS''
asg1412
I00
sbag1
(g1991
g3
(lp3107
g5
ag625
ag645
ag665
atRp3108
(dp3109
g1410
(lp3110
S''
aS''
aS''
asg1412
I00
sbag1
(g1991
g3
(lp3111
g625
ag645
ag665
ag685
atRp3112
(dp3113
g1410
(lp3114
S''
aS''
aS''
asg1412
I00
sbag1
(g1991
g3
(lp3115
g5
ag898
ag918
ag938
atRp3116
(dp3117
g1410
(lp3118
S''
aS''
aS''
asg1412
I00
sbag1
(g1991
g3
(lp3119
g898
ag918
ag938
ag958
atRp3120
(dp3121
g1410
(lp3122
S''
aS''
aS''
asg1412
I00
sbag1
(g1991
g3
(lp3123
g352
ag5
ag60
ag309
atRp3124
(dp3125
g1410
(lp3126
S''
aS''
aS''
asg1412
I00
sbag1
(g1991
g3
(lp3127
g625
ag5
ag60
ag309
atRp3128
(dp3129
g1410
(lp3130
S''
aS''
aS''
asg1412
I00
sbag1
(g1991
g3
(lp3131
g898
ag5
ag60
ag309
atRp3132
(dp3133
g1410
(lp3134
S''
aS''
aS''
asg1412
I00
sbag1
(g1991
g3
(lp3135
g102
ag82
ag60
ag309
atRp3136
(dp3137
g1410
(lp3138
S''
aS''
aS''
asg1412
I00
sbag1
(g1991
g3
(lp3139
g352
ag5
ag60
ag330
atRp3140
(dp3141
g1410
(lp3142
S''
aS''
aS''
asg1412
I00
sbag1
(g1991
g3
(lp3143
g625
ag5
ag60
ag330
atRp3144
(dp3145
g1410
(lp3146
S''
aS''
aS''
asg1412
I00
sbag1
(g1991
g3
(lp3147
g898
ag5
ag60
ag330
atRp3148
(dp3149
g1410
(lp3150
S''
aS''
aS''
asg1412
I00
sbag1
(g1991
g3
(lp3151
g102
ag82
ag60
ag330
atRp3152
(dp3153
g1410
(lp3154
S''
aS''
aS''
asg1412
I00
sbag1
(g1991
g3
(lp3155
g5
ag60
ag82
ag266
atRp3156
(dp3157
g1410
(lp3158
S''
aS''
aS''
asg1412
I00
sbag1
(g1991
g3
(lp3159
g309
ag60
ag82
ag266
atRp3160
(dp3161
g1410
(lp3162
S''
aS''
aS''
asg1412
I00
sbag1
(g1991
g3
(lp3163
g330
ag60
ag82
ag266
atRp3164
(dp3165
g1410
(lp3166
S''
aS''
aS''
asg1412
I00
sbag1
(g1991
g3
(lp3167
g122
ag102
ag82
ag266
atRp3168
(dp3169
g1410
(lp3170
S''
aS''
aS''
asg1412
I00
sbag1
(g1991
g3
(lp3171
g5
ag60
ag82
ag287
atRp3172
(dp3173
g1410
(lp3174
S''
aS''
aS''
asg1412
I00
sbag1
(g1991
g3
(lp3175
g309
ag60
ag82
ag287
atRp3176
(dp3177
g1410
(lp3178
S''
aS''
aS''
asg1412
I00
sbag1
(g1991
g3
(lp3179
g330
ag60
ag82
ag287
atRp3180
(dp3181
g1410
(lp3182
S''
aS''
aS''
asg1412
I00
sbag1
(g1991
g3
(lp3183
g122
ag102
ag82
ag287
atRp3184
(dp3185
g1410
(lp3186
S''
aS''
aS''
asg1412
I00
sbag1
(g1991
g3
(lp3187
g60
ag5
ag352
ag582
atRp3188
(dp3189
g1410
(lp3190
S''
aS''
aS''
asg1412
I00
sbag1
(g1991
g3
(lp3191
g625
ag5
ag352
ag582
atRp3192
(dp3193
g1410
(lp3194
S''
aS''
aS''
asg1412
I00
sbag1
(g1991
g3
(lp3195
g898
ag5
ag352
ag582
atRp3196
(dp3197
g1410
(lp3198
S''
aS''
aS''
asg1412
I00
sbag1
(g1991
g3
(lp3199
g392
ag372
ag352
ag582
atRp3200
(dp3201
g1410
(lp3202
S''
aS''
aS''
asg1412
I00
sbag1
(g1991
g3
(lp3203
g60
ag5
ag352
ag603
atRp3204
(dp3205
g1410
(lp3206
S''
aS''
aS''
asg1412
I00
sbag1
(g1991
g3
(lp3207
g625
ag5
ag352
ag603
atRp3208
(dp3209
g1410
(lp3210
S''
aS''
aS''
asg1412
I00
sbag1
(g1991
g3
(lp3211
g898
ag5
ag352
ag603
atRp3212
(dp3213
g1410
(lp3214
S''
aS''
aS''
asg1412
I00
sbag1
(g1991
g3
(lp3215
g392
ag372
ag352
ag603
atRp3216
(dp3217
g1410
(lp3218
S''
aS''
aS''
asg1412
I00
sbag1
(g1991
g3
(lp3219
g5
ag352
ag372
ag539
atRp3220
(dp3221
g1410
(lp3222
S''
aS''
aS''
asg1412
I00
sbag1
(g1991
g3
(lp3223
g582
ag352
ag372
ag539
atRp3224
(dp3225
g1410
(lp3226
S''
aS''
aS''
asg1412
I00
sbag1
(g1991
g3
(lp3227
g603
ag352
ag372
ag539
atRp3228
(dp3229
g1410
(lp3230
S''
aS''
aS''
asg1412
I00
sbag1
(g1991
g3
(lp3231
g412
ag392
ag372
ag539
atRp3232
(dp3233
g1410
(lp3234
S''
aS''
aS''
asg1412
I00
sbag1
(g1991
g3
(lp3235
g5
ag352
ag372
ag560
atRp3236
(dp3237
g1410
(lp3238
S''
aS''
aS''
asg1412
I00
sbag1
(g1991
g3
(lp3239
g582
ag352
ag372
ag560
atRp3240
(dp3241
g1410
(lp3242
S''
aS''
aS''
asg1412
I00
sbag1
(g1991
g3
(lp3243
g603
ag352
ag372
ag560
atRp3244
(dp3245
g1410
(lp3246
S''
aS''
aS''
asg1412
I00
sbag1
(g1991
g3
(lp3247
g412
ag392
ag372
ag560
atRp3248
(dp3249
g1410
(lp3250
S''
aS''
aS''
asg1412
I00
sbag1
(g1991
g3
(lp3251
g60
ag5
ag625
ag855
atRp3252
(dp3253
g1410
(lp3254
S''
aS''
aS''
asg1412
I00
sbag1
(g1991
g3
(lp3255
g352
ag5
ag625
ag855
atRp3256
(dp3257
g1410
(lp3258
S''
aS''
aS''
asg1412
I00
sbag1
(g1991
g3
(lp3259
g898
ag5
ag625
ag855
atRp3260
(dp3261
g1410
(lp3262
S''
aS''
aS''
asg1412
I00
sbag1
(g1991
g3
(lp3263
g665
ag645
ag625
ag855
atRp3264
(dp3265
g1410
(lp3266
S''
aS''
aS''
asg1412
I00
sbag1
(g1991
g3
(lp3267
g60
ag5
ag625
ag876
atRp3268
(dp3269
g1410
(lp3270
S''
aS''
aS''
asg1412
I00
sbag1
(g1991
g3
(lp3271
g352
ag5
ag625
ag876
atRp3272
(dp3273
g1410
(lp3274
S''
aS''
aS''
asg1412
I00
sbag1
(g1991
g3
(lp3275
g898
ag5
ag625
ag876
atRp3276
(dp3277
g1410
(lp3278
S''
aS''
aS''
asg1412
I00
sbag1
(g1991
g3
(lp3279
g665
ag645
ag625
ag876
atRp3280
(dp3281
g1410
(lp3282
S''
aS''
aS''
asg1412
I00
sbag1
(g1991
g3
(lp3283
g5
ag625
ag645
ag812
atRp3284
(dp3285
g1410
(lp3286
S''
aS''
aS''
asg1412
I00
sbag1
(g1991
g3
(lp3287
g855
ag625
ag645
ag812
atRp3288
(dp3289
g1410
(lp3290
S''
aS''
aS''
asg1412
I00
sbag1
(g1991
g3
(lp3291
g876
ag625
ag645
ag812
atRp3292
(dp3293
g1410
(lp3294
S''
aS''
aS''
asg1412
I00
sbag1
(g1991
g3
(lp3295
g685
ag665
ag645
ag812
atRp3296
(dp3297
g1410
(lp3298
S''
aS''
aS''
asg1412
I00
sbag1
(g1991
g3
(lp3299
g5
ag625
ag645
ag833
atRp3300
(dp3301
g1410
(lp3302
S''
aS''
aS''
asg1412
I00
sbag1
(g1991
g3
(lp3303
g855
ag625
ag645
ag833
atRp3304
(dp3305
g1410
(lp3306
S''
aS''
aS''
asg1412
I00
sbag1
(g1991
g3
(lp3307
g876
ag625
ag645
ag833
atRp3308
(dp3309
g1410
(lp3310
S''
aS''
aS''
asg1412
I00
sbag1
(g1991
g3
(lp3311
g685
ag665
ag645
ag833
atRp3312
(dp3313
g1410
(lp3314
S''
aS''
aS''
asg1412
I00
sbag1
(g1991
g3
(lp3315
g60
ag5
ag898
ag1128
atRp3316
(dp3317
g1410
(lp3318
S''
aS''
aS''
asg1412
I00
sbag1
(g1991
g3
(lp3319
g352
ag5
ag898
ag1128
atRp3320
(dp3321
g1410
(lp3322
S''
aS''
aS''
asg1412
I00
sbag1
(g1991
g3
(lp3323
g625
ag5
ag898
ag1128
atRp3324
(dp3325
g1410
(lp3326
S''
aS''
aS''
asg1412
I00
sbag1
(g1991
g3
(lp3327
g938
ag918
ag898
ag1128
atRp3328
(dp3329
g1410
(lp3330
S''
aS''
aS''
asg1412
I00
sbag1
(g1991
g3
(lp3331
g60
ag5
ag898
ag1149
atRp3332
(dp3333
g1410
(lp3334
S''
aS''
aS''
asg1412
I00
sbag1
(g1991
g3
(lp3335
g352
ag5
ag898
ag1149
atRp3336
(dp3337
g1410
(lp3338
S''
aS''
aS''
asg1412
I00
sbag1
(g1991
g3
(lp3339
g625
ag5
ag898
ag1149
atRp3340
(dp3341
g1410
(lp3342
S''
aS''
aS''
asg1412
I00
sbag1
(g1991
g3
(lp3343
g938
ag918
ag898
ag1149
atRp3344
(dp3345
g1410
(lp3346
S''
aS''
aS''
asg1412
I00
sbag1
(g1991
g3
(lp3347
g5
ag898
ag918
ag1085
atRp3348
(dp3349
g1410
(lp3350
S''
aS''
aS''
asg1412
I00
sbag1
(g1991
g3
(lp3351
g1128
ag898
ag918
ag1085
atRp3352
(dp3353
g1410
(lp3354
S''
aS''
aS''
asg1412
I00
sbag1
(g1991
g3
(lp3355
g1149
ag898
ag918
ag1085
atRp3356
(dp3357
g1410
(lp3358
S''
aS''
aS''
asg1412
I00
sbag1
(g1991
g3
(lp3359
g958
ag938
ag918
ag1085
atRp3360
(dp3361
g1410
(lp3362
S''
aS''
aS''
asg1412
I00
sbag1
(g1991
g3
(lp3363
g5
ag898
ag918
ag1106
atRp3364
(dp3365
g1410
(lp3366
S''
aS''
aS''
asg1412
I00
sbag1
(g1991
g3
(lp3367
g1128
ag898
ag918
ag1106
atRp3368
(dp3369
g1410
(lp3370
S''
aS''
aS''
asg1412
I00
sbag1
(g1991
g3
(lp3371
g1149
ag898
ag918
ag1106
atRp3372
(dp3373
g1410
(lp3374
S''
aS''
aS''
asg1412
I00
sbag1
(g1991
g3
(lp3375
g958
ag938
ag918
ag1106
atRp3376
(dp3377
g1410
(lp3378
S''
aS''
aS''
asg1412
I00
sbag1
(g1991
g3
(lp3379
g60
ag82
ag102
ag222
atRp3380
(dp3381
g1410
(lp3382
S''
aS''
aS''
asg1412
I00
sbag1
(g1991
g3
(lp3383
g266
ag82
ag102
ag222
atRp3384
(dp3385
g1410
(lp3386
S''
aS''
aS''
asg1412
I00
sbag1
(g1991
g3
(lp3387
g287
ag82
ag102
ag222
atRp3388
(dp3389
g1410
(lp3390
S''
aS''
aS''
asg1412
I00
sbag1
(g1991
g3
(lp3391
g60
ag82
ag102
ag244
atRp3392
(dp3393
g1410
(lp3394
S''
aS''
aS''
asg1412
I00
sbag1
(g1991
g3
(lp3395
g266
ag82
ag102
ag244
atRp3396
(dp3397
g1410
(lp3398
S''
aS''
aS''
asg1412
I00
sbag1
(g1991
g3
(lp3399
g287
ag82
ag102
ag244
atRp3400
(dp3401
g1410
(lp3402
S''
aS''
aS''
asg1412
I00
sbag1
(g1991
g3
(lp3403
g82
ag102
ag122
ag143
atRp3404
(dp3405
g1410
(lp3406
S''
aS''
aS''
asg1412
I00
sbag1
(g1991
g3
(lp3407
g222
ag102
ag122
ag143
atRp3408
(dp3409
g1410
(lp3410
S''
aS''
aS''
asg1412
I00
sbag1
(g1991
g3
(lp3411
g244
ag102
ag122
ag143
atRp3412
(dp3413
g1410
(lp3414
S''
aS''
aS''
asg1412
I00
sbag1
(g1991
g3
(lp3415
g82
ag102
ag122
ag179
atRp3416
(dp3417
g1410
(lp3418
S''
aS''
aS''
asg1412
I00
sbag1
(g1991
g3
(lp3419
g222
ag102
ag122
ag179
atRp3420
(dp3421
g1410
(lp3422
S''
aS''
aS''
asg1412
I00
sbag1
(g1991
g3
(lp3423
g244
ag102
ag122
ag179
atRp3424
(dp3425
g1410
(lp3426
S''
aS''
aS''
asg1412
I00
sbag1
(g1991
g3
(lp3427
g82
ag102
ag122
ag200
atRp3428
(dp3429
g1410
(lp3430
S''
aS''
aS''
asg1412
I00
sbag1
(g1991
g3
(lp3431
g222
ag102
ag122
ag200
atRp3432
(dp3433
g1410
(lp3434
S''
aS''
aS''
asg1412
I00
sbag1
(g1991
g3
(lp3435
g244
ag102
ag122
ag200
atRp3436
(dp3437
g1410
(lp3438
S''
aS''
aS''
asg1412
I00
sbag1
(g1991
g3
(lp3439
g352
ag372
ag392
ag496
atRp3440
(dp3441
g1410
(lp3442
S''
aS''
aS''
asg1412
I00
sbag1
(g1991
g3
(lp3443
g539
ag372
ag392
ag496
atRp3444
(dp3445
g1410
(lp3446
S''
aS''
aS''
asg1412
I00
sbag1
(g1991
g3
(lp3447
g560
ag372
ag392
ag496
atRp3448
(dp3449
g1410
(lp3450
S''
aS''
aS''
asg1412
I00
sbag1
(g1991
g3
(lp3451
g352
ag372
ag392
ag517
atRp3452
(dp3453
g1410
(lp3454
S''
aS''
aS''
asg1412
I00
sbag1
(g1991
g3
(lp3455
g539
ag372
ag392
ag517
atRp3456
(dp3457
g1410
(lp3458
S''
aS''
aS''
asg1412
I00
sbag1
(g1991
g3
(lp3459
g560
ag372
ag392
ag517
atRp3460
(dp3461
g1410
(lp3462
S''
aS''
aS''
asg1412
I00
sbag1
(g1991
g3
(lp3463
g372
ag392
ag412
ag432
atRp3464
(dp3465
g1410
(lp3466
S''
aS''
aS''
asg1412
I00
sbag1
(g1991
g3
(lp3467
g496
ag392
ag412
ag432
atRp3468
(dp3469
g1410
(lp3470
S''
aS''
aS''
asg1412
I00
sbag1
(g1991
g3
(lp3471
g517
ag392
ag412
ag432
atRp3472
(dp3473
g1410
(lp3474
S''
aS''
aS''
asg1412
I00
sbag1
(g1991
g3
(lp3475
g372
ag392
ag412
ag453
atRp3476
(dp3477
g1410
(lp3478
S''
aS''
aS''
asg1412
I00
sbag1
(g1991
g3
(lp3479
g496
ag392
ag412
ag453
atRp3480
(dp3481
g1410
(lp3482
S''
aS''
aS''
asg1412
I00
sbag1
(g1991
g3
(lp3483
g517
ag392
ag412
ag453
atRp3484
(dp3485
g1410
(lp3486
S''
aS''
aS''
asg1412
I00
sbag1
(g1991
g3
(lp3487
g372
ag392
ag412
ag474
atRp3488
(dp3489
g1410
(lp3490
S''
aS''
aS''
asg1412
I00
sbag1
(g1991
g3
(lp3491
g496
ag392
ag412
ag474
atRp3492
(dp3493
g1410
(lp3494
S''
aS''
aS''
asg1412
I00
sbag1
(g1991
g3
(lp3495
g517
ag392
ag412
ag474
atRp3496
(dp3497
g1410
(lp3498
S''
aS''
aS''
asg1412
I00
sbag1
(g1991
g3
(lp3499
g625
ag645
ag665
ag769
atRp3500
(dp3501
g1410
(lp3502
S''
aS''
aS''
asg1412
I00
sbag1
(g1991
g3
(lp3503
g812
ag645
ag665
ag769
atRp3504
(dp3505
g1410
(lp3506
S''
aS''
aS''
asg1412
I00
sbag1
(g1991
g3
(lp3507
g833
ag645
ag665
ag769
atRp3508
(dp3509
g1410
(lp3510
S''
aS''
aS''
asg1412
I00
sbag1
(g1991
g3
(lp3511
g625
ag645
ag665
ag790
atRp3512
(dp3513
g1410
(lp3514
S''
aS''
aS''
asg1412
I00
sbag1
(g1991
g3
(lp3515
g812
ag645
ag665
ag790
atRp3516
(dp3517
g1410
(lp3518
S''
aS''
aS''
asg1412
I00
sbag1
(g1991
g3
(lp3519
g833
ag645
ag665
ag790
atRp3520
(dp3521
g1410
(lp3522
S''
aS''
aS''
asg1412
I00
sbag1
(g1991
g3
(lp3523
g645
ag665
ag685
ag705
atRp3524
(dp3525
g1410
(lp3526
S''
aS''
aS''
asg1412
I00
sbag1
(g1991
g3
(lp3527
g769
ag665
ag685
ag705
atRp3528
(dp3529
g1410
(lp3530
S''
aS''
aS''
asg1412
I00
sbag1
(g1991
g3
(lp3531
g790
ag665
ag685
ag705
atRp3532
(dp3533
g1410
(lp3534
S''
aS''
aS''
asg1412
I00
sbag1
(g1991
g3
(lp3535
g645
ag665
ag685
ag726
atRp3536
(dp3537
g1410
(lp3538
S''
aS''
aS''
asg1412
I00
sbag1
(g1991
g3
(lp3539
g769
ag665
ag685
ag726
atRp3540
(dp3541
g1410
(lp3542
S''
aS''
aS''
asg1412
I00
sbag1
(g1991
g3
(lp3543
g790
ag665
ag685
ag726
atRp3544
(dp3545
g1410
(lp3546
S''
aS''
aS''
asg1412
I00
sbag1
(g1991
g3
(lp3547
g645
ag665
ag685
ag747
atRp3548
(dp3549
g1410
(lp3550
S''
aS''
aS''
asg1412
I00
sbag1
(g1991
g3
(lp3551
g769
ag665
ag685
ag747
atRp3552
(dp3553
g1410
(lp3554
S''
aS''
aS''
asg1412
I00
sbag1
(g1991
g3
(lp3555
g790
ag665
ag685
ag747
atRp3556
(dp3557
g1410
(lp3558
S''
aS''
aS''
asg1412
I00
sbag1
(g1991
g3
(lp3559
g898
ag918
ag938
ag1042
atRp3560
(dp3561
g1410
(lp3562
S''
aS''
aS''
asg1412
I00
sbag1
(g1991
g3
(lp3563
g1085
ag918
ag938
ag1042
atRp3564
(dp3565
g1410
(lp3566
S''
aS''
aS''
asg1412
I00
sbag1
(g1991
g3
(lp3567
g1106
ag918
ag938
ag1042
atRp3568
(dp3569
g1410
(lp3570
S''
aS''
aS''
asg1412
I00
sbag1
(g1991
g3
(lp3571
g898
ag918
ag938
ag1063
atRp3572
(dp3573
g1410
(lp3574
S''
aS''
aS''
asg1412
I00
sbag1
(g1991
g3
(lp3575
g1085
ag918
ag938
ag1063
atRp3576
(dp3577
g1410
(lp3578
S''
aS''
aS''
asg1412
I00
sbag1
(g1991
g3
(lp3579
g1106
ag918
ag938
ag1063
atRp3580
(dp3581
g1410
(lp3582
S''
aS''
aS''
asg1412
I00
sbag1
(g1991
g3
(lp3583
g918
ag938
ag958
ag978
atRp3584
(dp3585
g1410
(lp3586
S''
aS''
aS''
asg1412
I00
sbag1
(g1991
g3
(lp3587
g1042
ag938
ag958
ag978
atRp3588
(dp3589
g1410
(lp3590
S''
aS''
aS''
asg1412
I00
sbag1
(g1991
g3
(lp3591
g1063
ag938
ag958
ag978
atRp3592
(dp3593
g1410
(lp3594
S''
aS''
aS''
asg1412
I00
sbag1
(g1991
g3
(lp3595
g918
ag938
ag958
ag999
atRp3596
(dp3597
g1410
(lp3598
S''
aS''
aS''
asg1412
I00
sbag1
(g1991
g3
(lp3599
g1042
ag938
ag958
ag999
atRp3600
(dp3601
g1410
(lp3602
S''
aS''
aS''
asg1412
I00
sbag1
(g1991
g3
(lp3603
g1063
ag938
ag958
ag999
atRp3604
(dp3605
g1410
(lp3606
S''
aS''
aS''
asg1412
I00
sbag1
(g1991
g3
(lp3607
g918
ag938
ag958
ag1020
atRp3608
(dp3609
g1410
(lp3610
S''
aS''
aS''
asg1412
I00
sbag1
(g1991
g3
(lp3611
g1042
ag938
ag958
ag1020
atRp3612
(dp3613
g1410
(lp3614
S''
aS''
aS''
asg1412
I00
sbag1
(g1991
g3
(lp3615
g1063
ag938
ag958
ag1020
atRp3616
(dp3617
g1410
(lp3618
S''
aS''
aS''
asg1412
I00
sbatRp3619
sS'ALT_angles'
p3620
g1
(g1402
g3
(lp3621
g1
(g1578
g3
(lp3622
g5
ag60
ag82
atRp3623
(dp3624
g1410
(lp3625
S''
aS''
asg1412
I00
sbag1
(g1578
g3
(lp3626
g60
ag5
ag352
atRp3627
(dp3628
g1410
(lp3629
S''
aS''
asg1412
I00
sbag1
(g1578
g3
(lp3630
g5
ag352
ag372
atRp3631
(dp3632
g1410
(lp3633
S''
aS''
asg1412
I00
sbag1
(g1578
g3
(lp3634
g60
ag5
ag625
atRp3635
(dp3636
g1410
(lp3637
S''
aS''
asg1412
I00
sbag1
(g1578
g3
(lp3638
g352
ag5
ag625
atRp3639
(dp3640
g1410
(lp3641
S''
aS''
asg1412
I00
sbag1
(g1578
g3
(lp3642
g5
ag625
ag645
atRp3643
(dp3644
g1410
(lp3645
S''
aS''
asg1412
I00
sbag1
(g1578
g3
(lp3646
g60
ag5
ag898
atRp3647
(dp3648
g1410
(lp3649
S''
aS''
asg1412
I00
sbag1
(g1578
g3
(lp3650
g352
ag5
ag898
atRp3651
(dp3652
g1410
(lp3653
S''
aS''
asg1412
I00
sbag1
(g1578
g3
(lp3654
g625
ag5
ag898
atRp3655
(dp3656
g1410
(lp3657
S''
aS''
asg1412
I00
sbag1
(g1578
g3
(lp3658
g5
ag898
ag918
atRp3659
(dp3660
g1410
(lp3661
S''
aS''
asg1412
I00
sbag1
(g1578
g3
(lp3662
g60
ag82
ag102
atRp3663
(dp3664
g1410
(lp3665
S''
aS''
asg1412
I00
sbag1
(g1578
g3
(lp3666
g82
ag102
ag122
atRp3667
(dp3668
g1410
(lp3669
S''
aS''
asg1412
I00
sbag1
(g1578
g3
(lp3670
g352
ag372
ag392
atRp3671
(dp3672
g1410
(lp3673
S''
aS''
asg1412
I00
sbag1
(g1578
g3
(lp3674
g372
ag392
ag412
atRp3675
(dp3676
g1410
(lp3677
S''
aS''
asg1412
I00
sbag1
(g1578
g3
(lp3678
g625
ag645
ag665
atRp3679
(dp3680
g1410
(lp3681
S''
aS''
asg1412
I00
sbag1
(g1578
g3
(lp3682
g645
ag665
ag685
atRp3683
(dp3684
g1410
(lp3685
S''
aS''
asg1412
I00
sbag1
(g1578
g3
(lp3686
g898
ag918
ag938
atRp3687
(dp3688
g1410
(lp3689
S''
aS''
asg1412
I00
sbag1
(g1578
g3
(lp3690
g918
ag938
ag958
atRp3691
(dp3692
g1410
(lp3693
S''
aS''
asg1412
I00
sbag1
(g1578
g3
(lp3694
g5
ag60
ag309
atRp3695
(dp3696
g1410
(lp3697
S''
aS''
asg1412
I00
sbag1
(g1578
g3
(lp3698
g82
ag60
ag309
atRp3699
(dp3700
g1410
(lp3701
S''
aS''
asg1412
I00
sbag1
(g1578
g3
(lp3702
g5
ag60
ag330
atRp3703
(dp3704
g1410
(lp3705
S''
aS''
asg1412
I00
sbag1
(g1578
g3
(lp3706
g82
ag60
ag330
atRp3707
(dp3708
g1410
(lp3709
S''
aS''
asg1412
I00
sbag1
(g1578
g3
(lp3710
g309
ag60
ag330
atRp3711
(dp3712
g1410
(lp3713
S''
aS''
asg1412
I00
sbag1
(g1578
g3
(lp3714
g60
ag82
ag266
atRp3715
(dp3716
g1410
(lp3717
S''
aS''
asg1412
I00
sbag1
(g1578
g3
(lp3718
g102
ag82
ag266
atRp3719
(dp3720
g1410
(lp3721
S''
aS''
asg1412
I00
sbag1
(g1578
g3
(lp3722
g60
ag82
ag287
atRp3723
(dp3724
g1410
(lp3725
S''
aS''
asg1412
I00
sbag1
(g1578
g3
(lp3726
g102
ag82
ag287
atRp3727
(dp3728
g1410
(lp3729
S''
aS''
asg1412
I00
sbag1
(g1578
g3
(lp3730
g266
ag82
ag287
atRp3731
(dp3732
g1410
(lp3733
S''
aS''
asg1412
I00
sbag1
(g1578
g3
(lp3734
g5
ag352
ag582
atRp3735
(dp3736
g1410
(lp3737
S''
aS''
asg1412
I00
sbag1
(g1578
g3
(lp3738
g372
ag352
ag582
atRp3739
(dp3740
g1410
(lp3741
S''
aS''
asg1412
I00
sbag1
(g1578
g3
(lp3742
g5
ag352
ag603
atRp3743
(dp3744
g1410
(lp3745
S''
aS''
asg1412
I00
sbag1
(g1578
g3
(lp3746
g372
ag352
ag603
atRp3747
(dp3748
g1410
(lp3749
S''
aS''
asg1412
I00
sbag1
(g1578
g3
(lp3750
g582
ag352
ag603
atRp3751
(dp3752
g1410
(lp3753
S''
aS''
asg1412
I00
sbag1
(g1578
g3
(lp3754
g352
ag372
ag539
atRp3755
(dp3756
g1410
(lp3757
S''
aS''
asg1412
I00
sbag1
(g1578
g3
(lp3758
g392
ag372
ag539
atRp3759
(dp3760
g1410
(lp3761
S''
aS''
asg1412
I00
sbag1
(g1578
g3
(lp3762
g352
ag372
ag560
atRp3763
(dp3764
g1410
(lp3765
S''
aS''
asg1412
I00
sbag1
(g1578
g3
(lp3766
g392
ag372
ag560
atRp3767
(dp3768
g1410
(lp3769
S''
aS''
asg1412
I00
sbag1
(g1578
g3
(lp3770
g539
ag372
ag560
atRp3771
(dp3772
g1410
(lp3773
S''
aS''
asg1412
I00
sbag1
(g1578
g3
(lp3774
g5
ag625
ag855
atRp3775
(dp3776
g1410
(lp3777
S''
aS''
asg1412
I00
sbag1
(g1578
g3
(lp3778
g645
ag625
ag855
atRp3779
(dp3780
g1410
(lp3781
S''
aS''
asg1412
I00
sbag1
(g1578
g3
(lp3782
g5
ag625
ag876
atRp3783
(dp3784
g1410
(lp3785
S''
aS''
asg1412
I00
sbag1
(g1578
g3
(lp3786
g645
ag625
ag876
atRp3787
(dp3788
g1410
(lp3789
S''
aS''
asg1412
I00
sbag1
(g1578
g3
(lp3790
g855
ag625
ag876
atRp3791
(dp3792
g1410
(lp3793
S''
aS''
asg1412
I00
sbag1
(g1578
g3
(lp3794
g625
ag645
ag812
atRp3795
(dp3796
g1410
(lp3797
S''
aS''
asg1412
I00
sbag1
(g1578
g3
(lp3798
g665
ag645
ag812
atRp3799
(dp3800
g1410
(lp3801
S''
aS''
asg1412
I00
sbag1
(g1578
g3
(lp3802
g625
ag645
ag833
atRp3803
(dp3804
g1410
(lp3805
S''
aS''
asg1412
I00
sbag1
(g1578
g3
(lp3806
g665
ag645
ag833
atRp3807
(dp3808
g1410
(lp3809
S''
aS''
asg1412
I00
sbag1
(g1578
g3
(lp3810
g812
ag645
ag833
atRp3811
(dp3812
g1410
(lp3813
S''
aS''
asg1412
I00
sbag1
(g1578
g3
(lp3814
g5
ag898
ag1128
atRp3815
(dp3816
g1410
(lp3817
S''
aS''
asg1412
I00
sbag1
(g1578
g3
(lp3818
g918
ag898
ag1128
atRp3819
(dp3820
g1410
(lp3821
S''
aS''
asg1412
I00
sbag1
(g1578
g3
(lp3822
g5
ag898
ag1149
atRp3823
(dp3824
g1410
(lp3825
S''
aS''
asg1412
I00
sbag1
(g1578
g3
(lp3826
g918
ag898
ag1149
atRp3827
(dp3828
g1410
(lp3829
S''
aS''
asg1412
I00
sbag1
(g1578
g3
(lp3830
g1128
ag898
ag1149
atRp3831
(dp3832
g1410
(lp3833
S''
aS''
asg1412
I00
sbag1
(g1578
g3
(lp3834
g898
ag918
ag1085
atRp3835
(dp3836
g1410
(lp3837
S''
aS''
asg1412
I00
sbag1
(g1578
g3
(lp3838
g938
ag918
ag1085
atRp3839
(dp3840
g1410
(lp3841
S''
aS''
asg1412
I00
sbag1
(g1578
g3
(lp3842
g898
ag918
ag1106
atRp3843
(dp3844
g1410
(lp3845
S''
aS''
asg1412
I00
sbag1
(g1578
g3
(lp3846
g938
ag918
ag1106
atRp3847
(dp3848
g1410
(lp3849
S''
aS''
asg1412
I00
sbag1
(g1578
g3
(lp3850
g1085
ag918
ag1106
atRp3851
(dp3852
g1410
(lp3853
S''
aS''
asg1412
I00
sbag1
(g1578
g3
(lp3854
g82
ag102
ag222
atRp3855
(dp3856
g1410
(lp3857
S''
aS''
asg1412
I00
sbag1
(g1578
g3
(lp3858
g122
ag102
ag222
atRp3859
(dp3860
g1410
(lp3861
S''
aS''
asg1412
I00
sbag1
(g1578
g3
(lp3862
g82
ag102
ag244
atRp3863
(dp3864
g1410
(lp3865
S''
aS''
asg1412
I00
sbag1
(g1578
g3
(lp3866
g122
ag102
ag244
atRp3867
(dp3868
g1410
(lp3869
S''
aS''
asg1412
I00
sbag1
(g1578
g3
(lp3870
g222
ag102
ag244
atRp3871
(dp3872
g1410
(lp3873
S''
aS''
asg1412
I00
sbag1
(g1578
g3
(lp3874
g102
ag122
ag143
atRp3875
(dp3876
g1410
(lp3877
S''
aS''
asg1412
I00
sbag1
(g1578
g3
(lp3878
g102
ag122
ag179
atRp3879
(dp3880
g1410
(lp3881
S''
aS''
asg1412
I00
sbag1
(g1578
g3
(lp3882
g143
ag122
ag179
atRp3883
(dp3884
g1410
(lp3885
S''
aS''
asg1412
I00
sbag1
(g1578
g3
(lp3886
g102
ag122
ag200
atRp3887
(dp3888
g1410
(lp3889
S''
aS''
asg1412
I00
sbag1
(g1578
g3
(lp3890
g143
ag122
ag200
atRp3891
(dp3892
g1410
(lp3893
S''
aS''
asg1412
I00
sbag1
(g1578
g3
(lp3894
g179
ag122
ag200
atRp3895
(dp3896
g1410
(lp3897
S''
aS''
asg1412
I00
sbag1
(g1578
g3
(lp3898
g372
ag392
ag496
atRp3899
(dp3900
g1410
(lp3901
S''
aS''
asg1412
I00
sbag1
(g1578
g3
(lp3902
g412
ag392
ag496
atRp3903
(dp3904
g1410
(lp3905
S''
aS''
asg1412
I00
sbag1
(g1578
g3
(lp3906
g372
ag392
ag517
atRp3907
(dp3908
g1410
(lp3909
S''
aS''
asg1412
I00
sbag1
(g1578
g3
(lp3910
g412
ag392
ag517
atRp3911
(dp3912
g1410
(lp3913
S''
aS''
asg1412
I00
sbag1
(g1578
g3
(lp3914
g496
ag392
ag517
atRp3915
(dp3916
g1410
(lp3917
S''
aS''
asg1412
I00
sbag1
(g1578
g3
(lp3918
g392
ag412
ag432
atRp3919
(dp3920
g1410
(lp3921
S''
aS''
asg1412
I00
sbag1
(g1578
g3
(lp3922
g392
ag412
ag453
atRp3923
(dp3924
g1410
(lp3925
S''
aS''
asg1412
I00
sbag1
(g1578
g3
(lp3926
g432
ag412
ag453
atRp3927
(dp3928
g1410
(lp3929
S''
aS''
asg1412
I00
sbag1
(g1578
g3
(lp3930
g392
ag412
ag474
atRp3931
(dp3932
g1410
(lp3933
S''
aS''
asg1412
I00
sbag1
(g1578
g3
(lp3934
g432
ag412
ag474
atRp3935
(dp3936
g1410
(lp3937
S''
aS''
asg1412
I00
sbag1
(g1578
g3
(lp3938
g453
ag412
ag474
atRp3939
(dp3940
g1410
(lp3941
S''
aS''
asg1412
I00
sbag1
(g1578
g3
(lp3942
g645
ag665
ag769
atRp3943
(dp3944
g1410
(lp3945
S''
aS''
asg1412
I00
sbag1
(g1578
g3
(lp3946
g685
ag665
ag769
atRp3947
(dp3948
g1410
(lp3949
S''
aS''
asg1412
I00
sbag1
(g1578
g3
(lp3950
g645
ag665
ag790
atRp3951
(dp3952
g1410
(lp3953
S''
aS''
asg1412
I00
sbag1
(g1578
g3
(lp3954
g685
ag665
ag790
atRp3955
(dp3956
g1410
(lp3957
S''
aS''
asg1412
I00
sbag1
(g1578
g3
(lp3958
g769
ag665
ag790
atRp3959
(dp3960
g1410
(lp3961
S''
aS''
asg1412
I00
sbag1
(g1578
g3
(lp3962
g665
ag685
ag705
atRp3963
(dp3964
g1410
(lp3965
S''
aS''
asg1412
I00
sbag1
(g1578
g3
(lp3966
g665
ag685
ag726
atRp3967
(dp3968
g1410
(lp3969
S''
aS''
asg1412
I00
sbag1
(g1578
g3
(lp3970
g705
ag685
ag726
atRp3971
(dp3972
g1410
(lp3973
S''
aS''
asg1412
I00
sbag1
(g1578
g3
(lp3974
g665
ag685
ag747
atRp3975
(dp3976
g1410
(lp3977
S''
aS''
asg1412
I00
sbag1
(g1578
g3
(lp3978
g705
ag685
ag747
atRp3979
(dp3980
g1410
(lp3981
S''
aS''
asg1412
I00
sbag1
(g1578
g3
(lp3982
g726
ag685
ag747
atRp3983
(dp3984
g1410
(lp3985
S''
aS''
asg1412
I00
sbag1
(g1578
g3
(lp3986
g918
ag938
ag1042
atRp3987
(dp3988
g1410
(lp3989
S''
aS''
asg1412
I00
sbag1
(g1578
g3
(lp3990
g958
ag938
ag1042
atRp3991
(dp3992
g1410
(lp3993
S''
aS''
asg1412
I00
sbag1
(g1578
g3
(lp3994
g918
ag938
ag1063
atRp3995
(dp3996
g1410
(lp3997
S''
aS''
asg1412
I00
sbag1
(g1578
g3
(lp3998
g958
ag938
ag1063
atRp3999
(dp4000
g1410
(lp4001
S''
aS''
asg1412
I00
sbag1
(g1578
g3
(lp4002
g1042
ag938
ag1063
atRp4003
(dp4004
g1410
(lp4005
S''
aS''
asg1412
I00
sbag1
(g1578
g3
(lp4006
g938
ag958
ag978
atRp4007
(dp4008
g1410
(lp4009
S''
aS''
asg1412
I00
sbag1
(g1578
g3
(lp4010
g938
ag958
ag999
atRp4011
(dp4012
g1410
(lp4013
S''
aS''
asg1412
I00
sbag1
(g1578
g3
(lp4014
g978
ag958
ag999
atRp4015
(dp4016
g1410
(lp4017
S''
aS''
asg1412
I00
sbag1
(g1578
g3
(lp4018
g938
ag958
ag1020
atRp4019
(dp4020
g1410
(lp4021
S''
aS''
asg1412
I00
sbag1
(g1578
g3
(lp4022
g978
ag958
ag1020
atRp4023
(dp4024
g1410
(lp4025
S''
aS''
asg1412
I00
sbag1
(g1578
g3
(lp4026
g999
ag958
ag1020
atRp4027
(dp4028
g1410
(lp4029
S''
aS''
asg1412
I00
sbatRp4030
sS'temp_cif'
p4031
S'/tmp/tmpD4D2E9'
p4032
sS'zmatrix_class'
p4033
g1
(celbow.chemistry.ZMatrixClass
ZMatrixClass
p4034
g3
(lp4035
g1
(celbow.chemistry.ZMatrixClass
ZMatrixLine
p4036
g3
(lp4037
g5
atRp4038
(dp4039
S'bond_index'
p4040
I2
sS'dihedral_index'
p4041
I6
sS'variable_set'
p4042
I01
sS'variable'
p4043
(lp4044
I00
aI00
aI00
asS'ring'
p4045
I00
sS'angle_index'
p4046
I4
sg1408
Nsbag1
(g4036
g3
(lp4047
g60
ag5
aF1.4597301834653871
atRp4048
(dp4049
g4040
I2
sg4041
I6
sg4042
I01
sg4043
(lp4050
I00
aI00
aI00
asg4045
I00
sg4046
I4
sg1408
F1.4597301834653871
sbag1
(g4036
g3
(lp4051
g82
ag60
aF1.5282785183494823
ag5
aF109.49103168262189
atRp4052
(dp4053
g4040
I2
sg4041
I6
sg4042
I01
sg4043
(lp4054
I00
aI00
aI00
asg4045
I00
sg4046
I4
sg1408
F1.5282785183494823
sbag1
(g4036
g3
(lp4055
g352
ag5
aF1.4578612149564183
ag60
aF109.46008251614532
ag82
aF-52.75828260647976
atRp4056
(dp4057
g4040
I2
sg4041
I6
sg4042
I01
sg4043
(lp4058
I00
aI00
aI00
asg4045
I00
sg4046
I4
sg1408
F1.4578612149564183
sbag1
(g4036
g3
(lp4059
g372
ag352
aF1.5305968900920364
ag5
aF109.4829627006422
ag60
aF-68.714569424218723
atRp4060
(dp4061
g4040
I2
sg4041
I6
sg4042
I01
sg4043
(lp4062
I00
aI00
aI00
asg4045
I00
sg4046
I4
sg1408
F1.5305968900920364
sbag1
(g4036
g3
(lp4063
g625
ag5
aF1.4609384469126061
ag60
aF109.45249407364946
ag82
aF-172.77254223730205
atRp4064
(dp4065
g4040
I2
sg4041
I6
sg4042
I01
sg4043
(lp4066
I00
aI00
aI00
asg4045
I00
sg4046
I4
sg1408
F1.4609384469126061
sbag1
(g4036
g3
(lp4067
g645
ag625
aF1.5303989920865524
ag5
aF109.5006005798666
ag60
aF173.6248382549492
atRp4068
(dp4069
g4040
I2
sg4041
I6
sg4042
I01
sg4043
(lp4070
I00
aI00
aI00
asg4045
I00
sg4046
I4
sg1408
F1.5303989920865524
sbag1
(g4036
g3
(lp4071
g898
ag5
aF1.4604774135278318
ag60
aF109.47926092048944
ag82
aF67.240621929143273
atRp4072
(dp4073
g4040
I2
sg4041
I6
sg4042
I01
sg4043
(lp4074
I00
aI00
aI00
asg4045
I00
sg4046
I4
sg1408
F1.4604774135278318
sbag1
(g4036
g3
(lp4075
g918
ag898
aF1.529979615420509
ag5
aF109.4739213563378
ag60
aF61.271277296032217
atRp4076
(dp4077
g4040
I2
sg4041
I6
sg4042
I01
sg4043
(lp4078
I00
aI00
aI00
asg4045
I00
sg4046
I4
sg1408
F1.529979615420509
sbag1
(g4036
g3
(lp4079
g102
ag82
aF1.5302463036797995
ag60
aF109.45001475675512
ag5
aF-178.52973595454552
atRp4080
(dp4081
g4040
I2
sg4041
I6
sg4042
I01
sg4043
(lp4082
I00
aI00
aI00
asg4045
I00
sg4046
I4
sg1408
F1.5302463036797995
sbag1
(g4036
g3
(lp4083
g122
ag102
aF1.5263421121583651
ag82
aF109.478574158149
ag60
aF173.96235673008022
atRp4084
(dp4085
g4040
I2
sg4041
I6
sg4042
I01
sg4043
(lp4086
I00
aI00
aI00
asg4045
I00
sg4046
I4
sg1408
F1.5263421121583651
sbag1
(g4036
g3
(lp4087
g392
ag372
aF1.5282430279316348
ag352
aF109.47926129699214
ag5
aF177.30010831994042
atRp4088
(dp4089
g4040
I2
sg4041
I6
sg4042
I01
sg4043
(lp4090
I00
aI00
aI00
asg4045
I00
sg4046
I4
sg1408
F1.5282430279316348
sbag1
(g4036
g3
(lp4091
g412
ag392
aF1.5298943962932847
ag372
aF109.45100397083594
ag352
aF-172.22443446068002
atRp4092
(dp4093
g4040
I2
sg4041
I6
sg4042
I01
sg4043
(lp4094
I00
aI00
aI00
asg4045
I00
sg4046
I4
sg1408
F1.5298943962932847
sbag1
(g4036
g3
(lp4095
g665
ag645
aF1.5328526948538865
ag625
aF109.46001021108164
ag5
aF171.82640254092334
atRp4096
(dp4097
g4040
I2
sg4041
I6
sg4042
I01
sg4043
(lp4098
I00
aI00
aI00
asg4045
I00
sg4046
I4
sg1408
F1.5328526948538865
sbag1
(g4036
g3
(lp4099
g685
ag665
aF1.5287565953774713
ag645
aF109.47292230806003
ag625
aF-171.96007094068744
atRp4100
(dp4101
g4040
I2
sg4041
I6
sg4042
I01
sg4043
(lp4102
I00
aI00
aI00
asg4045
I00
sg4046
I4
sg1408
F1.5287565953774713
sbag1
(g4036
g3
(lp4103
g938
ag918
aF1.5265048899843809
ag898
aF109.46445801647347
ag5
aF-175.33342801722239
atRp4104
(dp4105
g4040
I2
sg4041
I6
sg4042
I01
sg4043
(lp4106
I00
aI00
aI00
asg4045
I00
sg4046
I4
sg1408
F1.5265048899843809
sbag1
(g4036
g3
(lp4107
g958
ag938
aF1.5281164411959942
ag918
aF109.47561047635273
ag898
aF177.73256068080312
atRp4108
(dp4109
g4040
I2
sg4041
I6
sg4042
I01
sg4043
(lp4110
I00
aI00
aI00
asg4045
I00
sg4046
I4
sg1408
F1.5281164411959942
sbag1
(g4036
g3
(lp4111
g309
ag60
aF1.0833090000000001
ag5
aF109.47110767297561
ag352
aF67.247335677468257
atRp4112
(dp4113
g4040
I2
sg4041
I6
sg4042
I01
sg4043
(lp4114
I00
aI00
aI00
asg4045
I00
sg4046
I4
sg1408
F1.0833090000000001
sbag1
(g4036
g3
(lp4115
g330
ag60
aF1.0833090000000001
ag5
aF109.47264175800248
ag352
aF-172.76601217591269
atRp4116
(dp4117
g4040
I2
sg4041
I6
sg4042
I01
sg4043
(lp4118
I00
aI00
aI00
asg4045
I00
sg4046
I4
sg1408
F1.0833090000000001
sbag1
(g4036
g3
(lp4119
g266
ag82
aF1.0833090000000001
ag60
aF109.48105755789918
ag5
aF-58.536262567281277
atRp4120
(dp4121
g4040
I2
sg4041
I6
sg4042
I01
sg4043
(lp4122
I00
aI00
aI00
asg4045
I00
sg4046
I4
sg1408
F1.0833090000000001
sbag1
(g4036
g3
(lp4123
g287
ag82
aF1.0833090000000001
ag60
aF109.48113125700105
ag5
aF61.479307471970358
atRp4124
(dp4125
g4040
I2
sg4041
I6
sg4042
I01
sg4043
(lp4126
I00
aI00
aI00
asg4045
I00
sg4046
I4
sg1408
F1.0833090000000001
sbag1
(g4036
g3
(lp4127
g582
ag352
aF1.0833090000000001
ag5
aF109.47428379926862
ag60
aF51.291865089177954
atRp4128
(dp4129
g4040
I2
sg4041
I6
sg4042
I01
sg4043
(lp4130
I00
aI00
aI00
asg4045
I00
sg4046
I4
sg1408
F1.0833090000000001
sbag1
(g4036
g3
(lp4131
g603
ag352
aF1.0833090000000001
ag5
aF109.47236608664119
ag60
aF171.28150802637202
atRp4132
(dp4133
g4040
I2
sg4041
I6
sg4042
I01
sg4043
(lp4134
I00
aI00
aI00
asg4045
I00
sg4046
I4
sg1408
F1.0833090000000001
sbag1
(g4036
g3
(lp4135
g539
ag372
aF1.0833090000000001
ag352
aF109.47450288609905
ag5
aF57.300392380041686
atRp4136
(dp4137
g4040
I2
sg4041
I6
sg4042
I01
sg4043
(lp4138
I00
aI00
aI00
asg4045
I00
sg4046
I4
sg1408
F1.0833090000000001
sbag1
(g4036
g3
(lp4139
g560
ag372
aF1.0833090000000001
ag352
aF109.47610206931446
ag5
aF-62.700202853619338
atRp4140
(dp4141
g4040
I2
sg4041
I6
sg4042
I01
sg4043
(lp4142
I00
aI00
aI00
asg4045
I00
sg4046
I4
sg1408
F1.0833090000000001
sbag1
(g4036
g3
(lp4143
g855
ag625
aF1.0833090000000001
ag5
aF109.46974234045938
ag60
aF-66.365824156680105
atRp4144
(dp4145
g4040
I2
sg4041
I6
sg4042
I01
sg4043
(lp4146
I00
aI00
aI00
asg4045
I00
sg4046
I4
sg1408
F1.0833090000000001
sbag1
(g4036
g3
(lp4147
g876
ag625
aF1.0833090000000001
ag5
aF109.4697098300792
ag60
aF53.615275344725546
atRp4148
(dp4149
g4040
I2
sg4041
I6
sg4042
I01
sg4043
(lp4150
I00
aI00
aI00
asg4045
I00
sg4046
I4
sg1408
F1.0833090000000001
sbag1
(g4036
g3
(lp4151
g812
ag645
aF1.0833090000000001
ag625
aF109.47920476709147
ag5
aF51.831147937241795
atRp4152
(dp4153
g4040
I2
sg4041
I6
sg4042
I01
sg4043
(lp4154
I00
aI00
aI00
asg4045
I00
sg4046
I4
sg1408
F1.0833090000000001
sbag1
(g4036
g3
(lp4155
g833
ag645
aF1.0833090000000001
ag625
aF109.47922937036179
ag5
aF-68.178930860768858
atRp4156
(dp4157
g4040
I2
sg4041
I6
sg4042
I01
sg4043
(lp4158
I00
aI00
aI00
asg4045
I00
sg4046
I4
sg1408
F1.0833090000000001
sbag1
(g4036
g3
(lp4159
g1128
ag898
aF1.0833090000000001
ag5
aF109.47490600038144
ag60
aF-58.731048244026795
atRp4160
(dp4161
g4040
I2
sg4041
I6
sg4042
I01
sg4043
(lp4162
I00
aI00
aI00
asg4045
I00
sg4046
I4
sg1408
F1.0833090000000001
sbag1
(g4036
g3
(lp4163
g1149
ag898
aF1.0833090000000001
ag5
aF109.47557236802159
ag60
aF-178.72618940280429
atRp4164
(dp4165
g4040
I2
sg4041
I6
sg4042
I01
sg4043
(lp4166
I00
aI00
aI00
asg4045
I00
sg4046
I4
sg1408
F1.0833090000000001
sbag1
(g4036
g3
(lp4167
g1085
ag918
aF1.0833090000000001
ag898
aF109.47764523090483
ag5
aF64.671552576885588
atRp4168
(dp4169
g4040
I2
sg4041
I6
sg4042
I01
sg4043
(lp4170
I00
aI00
aI00
asg4045
I00
sg4046
I4
sg1408
F1.0833090000000001
sbag1
(g4036
g3
(lp4171
g1106
ag918
aF1.0833090000000001
ag898
aF109.47897505263077
ag5
aF-55.336888544809987
atRp4172
(dp4173
g4040
I2
sg4041
I6
sg4042
I01
sg4043
(lp4174
I00
aI00
aI00
asg4045
I00
sg4046
I4
sg1408
F1.0833090000000001
sbag1
(g4036
g3
(lp4175
g222
ag102
aF1.0833090000000001
ag82
aF109.47260564504978
ag60
aF-66.036406863674159
atRp4176
(dp4177
g4040
I2
sg4041
I6
sg4042
I01
sg4043
(lp4178
I00
aI00
aI00
asg4045
I00
sg4046
I4
sg1408
F1.0833090000000001
sbag1
(g4036
g3
(lp4179
g244
ag102
aF1.0833090000000001
ag82
aF109.47331774654361
ag60
aF53.960838588577367
atRp4180
(dp4181
g4040
I2
sg4041
I6
sg4042
I01
sg4043
(lp4182
I00
aI00
aI00
asg4045
I00
sg4046
I4
sg1408
F1.0833090000000001
sbag1
(g4036
g3
(lp4183
g143
ag122
aF1.0833090000000001
ag102
aF109.47107187807977
ag82
aF177.98356522497409
atRp4184
(dp4185
g4040
I2
sg4041
I6
sg4042
I01
sg4043
(lp4186
I00
aI00
aI00
asg4045
I00
sg4046
I4
sg1408
F1.0833090000000001
sbag1
(g4036
g3
(lp4187
g179
ag122
aF1.0833090000000001
ag102
aF109.47470734163575
ag82
aF57.985200978864668
atRp4188
(dp4189
g4040
I2
sg4041
I6
sg4042
I01
sg4043
(lp4190
I00
aI00
aI00
asg4045
I00
sg4046
I4
sg1408
F1.0833090000000001
sbag1
(g4036
g3
(lp4191
g200
ag122
aF1.0833090000000001
ag102
aF109.47467437566625
ag82
aF-62.018085319367046
atRp4192
(dp4193
g4040
I2
sg4041
I6
sg4042
I01
sg4043
(lp4194
I00
aI00
aI00
asg4045
I00
sg4046
I4
sg1408
F1.0833090000000001
sbag1
(g4036
g3
(lp4195
g496
ag392
aF1.0833090000000001
ag372
aF109.47925966629428
ag352
aF-52.229661388504468
atRp4196
(dp4197
g4040
I2
sg4041
I6
sg4042
I01
sg4043
(lp4198
I00
aI00
aI00
asg4045
I00
sg4046
I4
sg1408
F1.0833090000000001
sbag1
(g4036
g3
(lp4199
g517
ag392
aF1.0833090000000001
ag372
aF109.47820149775758
ag352
aF67.781220917147067
atRp4200
(dp4201
g4040
I2
sg4041
I6
sg4042
I01
sg4043
(lp4202
I00
aI00
aI00
asg4045
I00
sg4046
I4
sg1408
F1.0833090000000001
sbag1
(g4036
g3
(lp4203
g432
ag412
aF1.0833090000000001
ag392
aF109.47480031380326
ag372
aF-57.522740228856804
atRp4204
(dp4205
g4040
I2
sg4041
I6
sg4042
I01
sg4043
(lp4206
I00
aI00
aI00
asg4045
I00
sg4046
I4
sg1408
F1.0833090000000001
sbag1
(g4036
g3
(lp4207
g453
ag412
aF1.0833090000000001
ag392
aF109.47104849724595
ag372
aF-177.52114390403611
atRp4208
(dp4209
g4040
I2
sg4041
I6
sg4042
I01
sg4043
(lp4210
I00
aI00
aI00
asg4045
I00
sg4046
I4
sg1408
F1.0833090000000001
sbag1
(g4036
g3
(lp4211
g474
ag412
aF1.0833090000000001
ag392
aF109.4746865824067
ag372
aF62.480607147708014
atRp4212
(dp4213
g4040
I2
sg4041
I6
sg4042
I01
sg4043
(lp4214
I00
aI00
aI00
asg4045
I00
sg4046
I4
sg1408
F1.0833090000000001
sbag1
(g4036
g3
(lp4215
g769
ag665
aF1.0833090000000001
ag645
aF109.4750425499773
ag625
aF-51.959709208248185
atRp4216
(dp4217
g4040
I2
sg4041
I6
sg4042
I01
sg4043
(lp4218
I00
aI00
aI00
asg4045
I00
sg4046
I4
sg1408
F1.0833090000000001
sbag1
(g4036
g3
(lp4219
g790
ag665
aF1.0833090000000001
ag645
aF109.47348015244872
ag625
aF68.040434437040105
atRp4220
(dp4221
g4040
I2
sg4041
I6
sg4042
I01
sg4043
(lp4222
I00
aI00
aI00
asg4045
I00
sg4046
I4
sg1408
F1.0833090000000001
sbag1
(g4036
g3
(lp4223
g705
ag685
aF1.0833090000000001
ag665
aF109.47452090747952
ag645
aF62.779435257837051
atRp4224
(dp4225
g4040
I2
sg4041
I6
sg4042
I01
sg4043
(lp4226
I00
aI00
aI00
asg4045
I00
sg4046
I4
sg1408
F1.0833090000000001
sbag1
(g4036
g3
(lp4227
g726
ag685
aF1.0833090000000001
ag665
aF109.47112306797881
ag645
aF-177.22218256823325
atRp4228
(dp4229
g4040
I2
sg4041
I6
sg4042
I01
sg4043
(lp4230
I00
aI00
aI00
asg4045
I00
sg4046
I4
sg1408
F1.0833090000000001
sbag1
(g4036
g3
(lp4231
g747
ag685
aF1.0833090000000001
ag665
aF109.47473438714046
ag645
aF-57.223725779740619
atRp4232
(dp4233
g4040
I2
sg4041
I6
sg4042
I01
sg4043
(lp4234
I00
aI00
aI00
asg4045
I00
sg4046
I4
sg1408
F1.0833090000000001
sbag1
(g4036
g3
(lp4235
g1042
ag938
aF1.0833090000000001
ag918
aF109.47314283482872
ag898
aF-62.267004058015829
atRp4236
(dp4237
g4040
I2
sg4041
I6
sg4042
I01
sg4043
(lp4238
I00
aI00
aI00
asg4045
I00
sg4046
I4
sg1408
F1.0833090000000001
sbag1
(g4036
g3
(lp4239
g1063
ag938
aF1.0833090000000001
ag918
aF109.47389220079553
ag898
aF57.731727740564821
atRp4240
(dp4241
g4040
I2
sg4041
I6
sg4042
I01
sg4043
(lp4242
I00
aI00
aI00
asg4045
I00
sg4046
I4
sg1408
F1.0833090000000001
sbag1
(g4036
g3
(lp4243
g978
ag958
aF1.0833090000000001
ag938
aF109.47107631287899
ag918
aF179.29550947643071
atRp4244
(dp4245
g4040
I2
sg4041
I6
sg4042
I01
sg4043
(lp4246
I00
aI00
aI00
asg4045
I00
sg4046
I4
sg1408
F1.0833090000000001
sbag1
(g4036
g3
(lp4247
g999
ag958
aF1.0833090000000001
ag938
aF109.47466588846071
ag918
aF59.297183670844078
atRp4248
(dp4249
g4040
I2
sg4041
I6
sg4042
I01
sg4043
(lp4250
I00
aI00
aI00
asg4045
I00
sg4046
I4
sg1408
F1.0833090000000001
sbag1
(g4036
g3
(lp4251
g1020
ag958
aF1.0833090000000001
ag938
aF109.47471548710038
ag918
aF-60.706101038115797
atRp4252
(dp4253
g4040
I2
sg4041
I6
sg4042
I01
sg4043
(lp4254
I00
aI00
aI00
asg4045
I00
sg4046
I4
sg1408
F1.0833090000000001
sbatRp4255
(dp4256
g2570
I01
sg1236
g1237
sS'parent'
p4257
g1172
sg1401
g1569
sg2595
I01
sS'atoms'
p4258
(lp4259
g5
ag60
ag82
ag352
ag372
ag625
ag645
ag898
ag918
ag102
ag122
ag392
ag412
ag665
ag685
ag938
ag958
ag309
ag330
ag266
ag287
ag582
ag603
ag539
ag560
ag855
ag876
ag812
ag833
ag1128
ag1149
ag1085
ag1106
ag222
ag244
ag143
ag179
ag200
ag496
ag517
ag432
ag453
ag474
ag769
ag790
ag705
ag726
ag747
ag1042
ag1063
ag978
ag999
ag1020
asg4043
(dp4260
I3
(lp4261
I6
asI4
(lp4262
I6
asI5
(lp4263
I6
asI6
(lp4264
I6
asI7
(lp4265
I6
asI8
(lp4266
I6
asI9
(lp4267
I6
asI10
(lp4268
I6
asI11
(lp4269
I6
asI12
(lp4270
I6
asI13
(lp4271
I6
asI14
(lp4272
I6
asI15
(lp4273
I6
asI16
(lp4274
I6
asI17
(lp4275
I6
asI18
(lp4276
I6
asI19
(lp4277
I6
asI20
(lp4278
I6
asI21
(lp4279
I6
asI22
(lp4280
I6
asI23
(lp4281
I6
asI24
(lp4282
I6
asI25
(lp4283
I6
asI26
(lp4284
I6
asI27
(lp4285
I6
asI28
(lp4286
I6
asI29
(lp4287
I6
asI30
(lp4288
I6
asI31
(lp4289
I6
asI32
(lp4290
I6
asI33
(lp4291
I6
asI34
(lp4292
I6
asI35
(lp4293
I6
asI36
(lp4294
I6
asI37
(lp4295
I6
asI38
(lp4296
I6
asI39
(lp4297
I6
asI40
(lp4298
I6
asI41
(lp4299
I6
asI42
(lp4300
I6
asI43
(lp4301
I6
asI44
(lp4302
I6
asI45
(lp4303
I6
asI46
(lp4304
I6
asI47
(lp4305
I6
asI48
(lp4306
I6
asI49
(lp4307
I6
asI50
(lp4308
I6
asI51
(lp4309
I6
asI52
(lp4310
I6
assg1221
(dp4311
sg1576
g1987
sS'use_parent_energise'
p4312
I01
sg1989
g2568
sbsS'small_planar_class'
p4313
g1
(g1218
g3
(ltRp4314
(dp4315
g1221
g1
(g1222
g1194
(dtRp4316
(dp4317
g1225
Nsg1226
(dp4318
sg1228
I00
sg1229
(lp4319
sg1231
(dp4320
sbsg1233
(lp4321
sbsS'all_rings'
p4322
(lp4323
sS'bonds_md5'
p4324
S'584e98cbd8368f2a99587bf028a4364f'
p4325
sg1221
g1
(g1222
g1194
(dp4326
I1
(F-0.00063374077770214643
F0.011237705410288925
F0.00082859287550218763
tp4327
sI2
(F1.457186506362832
F0.085870944632302465
F0.0023169309534710678
tp4328
sI3
(F1.9702357811052131
F0.0092132872451436421
F1.4398631997388338
tp4329
sI4
(F-0.42760938342965626
F-1.1629785375828048
F0.75200589374883053
tp4330
sI5
(F-0.037767677140058159
F-2.4290341232737833
F-0.014710180125521492
tp4331
sI6
(F-0.48127262985624442
F-0.088830828806979609
F-1.3751487661069666
tp4332
sI7
(F-1.9930830131983672
F-0.32661574236917479
F-1.3721865573535503
tp4333
sI8
(F-0.55045645284480771
F1.2131346428176306
F0.62222461198969869
tp4334
sI9
(F-0.12839731566777887
F2.4429333037946779
F-0.18418654975518384
tp4335
sI10
(F3.496139029230644
F0.1243755920591956
F1.4431298242756831
tp4336
sI11
(F3.9978415695801202
F0.19896804065720511
F2.8827307311130932
tp4337
sI12
(F-0.42502558859265904
F-3.6600956310741504
F0.8038529673782665
tp4338
sI13
(F0.1353918334416164
F-4.9153237826916154
F0.13235355242911445
tp4339
sI14
(F-2.5283100241606569
F-0.22824566651769401
F-2.8051878689489618
tp4340
sI15
(F-4.0564389175902988
F-0.26548784426676131
F-2.7821263604960866
tp4341
sI16
(F-0.60446645036265501
F3.7062842293726495
F0.52821768730294949
tp4342
sI17
(F-0.13445435879781475
F4.9362845256059602
F-0.24723557557130288
tp4343
sI18
(F-45.757457564542513
F74.767321615143274
F27.528113784669401
tp4344
sI19
(F-4.776575894533087
F-97.147598912591008
F73.39360203668484
tp4345
sI20
(F-91.184018375113496
F6.8894735235902935
F20.936179143662788
tp4346
sI21
(F39.377030307821713
F87.186211251564544
F84.646849463638361
tp4347
sI22
(F-16.588709191399136
F-54.603228921760632
F93.109625869244894
tp4348
sI23
(F55.752370779965219
F-57.340164667764142
F-87.705844885263048
tp4349
sI24
(F-42.706537766627463
F-19.972399314963639
F-17.801578981830108
tp4350
sI25
(F-80.013023242986137
F-65.018049284060382
F-11.775647457888606
tp4351
sI26
(F74.030734546501819
F-70.224133712184923
F-2.6628122814441868
tp4352
sI27
(F61.845635658883566
F-96.028791605127608
F81.995629469837809
tp4353
sI28
(F87.417729789521644
F-20.716584209618322
F-98.629327333650537
tp4354
sI29
(F-63.569957428686912
F97.193969215175755
F10.642542464680533
tp4355
sI30
(F35.029641613221862
F-72.640367747557946
F71.368934555987863
tp4356
sI31
(F-52.72322569417905
F-28.075512557187199
F-4.8168870774254584
tp4357
sI32
(F36.032143001052006
F-23.001742032349711
F-75.235710931802018
tp4358
sI33
(F-95.141453487165236
F-68.990538713363037
F95.783953257670092
tp4359
sI34
(F-38.202229680801047
F-74.029530651324521
F39.606506641217571
tp4360
sI35
(F83.513580556030675
F33.161801694866888
F23.392357178283088
tp4361
sI36
(F-34.365829137639594
F-32.263851986798748
F-53.270636092318831
tp4362
sI37
(F-0.027132161932283516
F-40.593456513426119
F16.701138196703411
tp4363
sI38
(F91.479893475170897
F-35.511454680694115
F-19.447448089094589
tp4364
sI39
(F77.795962388726821
F-43.738814095032318
F-24.921353669415918
tp4365
sI40
(F-90.505475154066943
F55.39280784813522
F73.487330912884175
tp4366
sI41
(F-43.044751678317532
F-96.886271374805361
F80.616843134421373
tp4367
sI42
(F-53.000023355881225
F68.724028495840201
F-80.475030881661596
tp4368
sI43
(F98.132985084334123
F9.1798840261631476
F54.485194990485333
tp4369
sI44
(F-38.565843893381803
F30.589567562139436
F-38.419720361837129
tp4370
sI45
(F-84.651047477412106
F83.578491856641108
F-87.495507108731005
tp4371
sI46
(F-88.754070607326
F5.9173787926863577
F-49.31534565453466
tp4372
sI47
(F-40.239701151742878
F-4.9129698108906936
F-100.63762337540115
tp4373
sI48
(F-52.997527531217564
F-12.608390576983888
F29.803937242282682
tp4374
sI49
(F64.567894678764205
F88.098358937773881
F75.444042933578274
tp4375
sI50
(F-93.468437709131891
F-42.112914200058206
F31.806633707360987
tp4376
sI51
(F-18.558003975120677
F-87.825054485605136
F-56.390616673566996
tp4377
sI52
(F88.60378308362975
F-27.943452381263739
F-25.704677042989534
tp4378
sI53
(F88.982329757635824
F102.42476839699253
F-67.62083938659076
tp4379
s(I7
I28
tp4380
(lp4381
F1.0833090000000001
aF100
as(I22
I4
I5
tp4382
(lp4383
F109.47122063449069
aF1
as(I29
I7
I28
tp4384
(lp4385
F109.47122063449069
aF1
as(I10
I35
tp4386
(lp4387
F1.0833090000000001
aF100
as(I50
I16
I17
tp4388
(lp4389
F109.47122063449069
aF1
as(I4
I5
tp4390
(lp4391
F1.527126
aF100
as(I5
I24
tp4392
(lp4393
F1.0833090000000001
aF100
as(I14
I7
I6
tp4394
(lp4395
F109.47122063449069
aF1
as(I9
I16
tp4396
(lp4397
F1.527126
aF100
as(I14
I15
tp4398
(lp4399
F1.527126
aF100
as(I27
I6
I26
tp4400
(lp4401
F109.47122063449069
aF1
as(I22
I4
I1
tp4402
(lp4403
F109.47122063449069
aF1
as(I11
I10
I3
tp4404
(lp4405
F109.47122063449069
aF1
as(I45
I14
I15
tp4406
(lp4407
F109.47122063449069
aF1
as(I11
I36
tp4408
(lp4409
F1.0833090000000001
aF100
as(I25
I5
I4
tp4410
(lp4411
F109.47122063449069
aF1
as(I12
I39
tp4412
(lp4413
F1.0833090000000001
aF100
as(I32
I9
I16
tp4414
(lp4415
F109.47122063449069
aF1
as(I17
I52
tp4416
(lp4417
F1.0833090000000001
aF100
as(I40
I12
I5
tp4418
(lp4419
F109.47122063449069
aF1
as(I39
I12
I5
tp4420
(lp4421
F109.47122063449069
aF1
as(I1
I6
tp4422
(lp4423
F1.451533
aF100
as(I48
I15
I46
tp4424
(lp4425
F109.47122063449069
aF1
as(I2
I18
tp4426
(lp4427
F1.0833090000000001
aF100
as(I10
I3
I2
tp4428
(lp4429
F109.47122063449069
aF1
as(I8
I9
tp4430
(lp4431
F1.527126
aF100
as(I8
I31
tp4432
(lp4433
F1.0833090000000001
aF100
as(I17
I16
I9
tp4434
(lp4435
F109.47122063449069
aF1
as(I13
I41
tp4436
(lp4437
F1.0833090000000001
aF100
as(I49
I16
I17
tp4438
(lp4439
F109.47122063449069
aF1
as(I25
I5
I12
tp4440
(lp4441
F109.47122063449069
aF1
as(I35
I10
I3
tp4442
(lp4443
F109.47122063449069
aF1
as(I12
I13
tp4444
(lp4445
F1.527126
aF100
as(I29
I7
I6
tp4446
(lp4447
F109.47122063449069
aF1
as(I6
I1
I2
tp4448
(lp4449
F109.47122063449069
aF1
as(I39
I12
I13
tp4450
(lp4451
F109.47122063449069
aF1
as(I15
I47
tp4452
(lp4453
F1.0833090000000001
aF100
as(I46
I15
I14
tp4454
(lp4455
F109.47122063449069
aF1
as(I43
I13
I42
tp4456
(lp4457
F109.47122063449069
aF1
as(I44
I14
I7
tp4458
(lp4459
F109.47122063449069
aF1
as(I47
I15
I14
tp4460
(lp4461
F109.47122063449069
aF1
as(I41
I13
I12
tp4462
(lp4463
F109.47122063449069
aF1
as(I37
I11
I10
tp4464
(lp4465
F109.47122063449069
aF1
as(I15
I46
tp4466
(lp4467
F1.0833090000000001
aF100
as(I12
I40
tp4468
(lp4469
F1.0833090000000001
aF100
as(I27
I6
I7
tp4470
(lp4471
F109.47122063449069
aF1
as(I5
I4
I1
tp4472
(lp4473
F109.47122063449069
aF1
as(I53
I17
I52
tp4474
(lp4475
F109.47122063449069
aF1
as(I38
I11
I36
tp4476
(lp4477
F109.47122063449069
aF1
as(I17
I51
tp4478
(lp4479
F1.0833090000000001
aF100
as(I6
I1
I4
tp4480
(lp4481
F109.47122063449069
aF1
as(I31
I8
I9
tp4482
(lp4483
F109.47122063449069
aF1
as(I6
I7
tp4484
(lp4485
F1.527126
aF100
as(I32
I9
I8
tp4486
(lp4487
F109.47122063449069
aF1
as(I15
I48
tp4488
(lp4489
F1.0833090000000001
aF100
as(I28
I7
I14
tp4490
(lp4491
F109.47122063449069
aF1
as(I8
I1
I2
tp4492
(lp4493
F109.47122063449069
aF1
as(I29
I7
I14
tp4494
(lp4495
F109.47122063449069
aF1
as(I9
I8
I1
tp4496
(lp4497
F109.47122063449069
aF1
as(I45
I14
I44
tp4498
(lp4499
F109.47122063449069
aF1
as(I17
I53
tp4500
(lp4501
F1.0833090000000001
aF100
as(I27
I6
I1
tp4502
(lp4503
F109.47122063449069
aF1
as(I36
I11
I10
tp4504
(lp4505
F109.47122063449069
aF1
as(I6
I27
tp4506
(lp4507
F1.0833090000000001
aF100
as(I8
I1
I6
tp4508
(lp4509
F109.47122063449069
aF1
as(I16
I9
I8
tp4510
(lp4511
F109.47122063449069
aF1
as(I23
I4
I22
tp4512
(lp4513
F109.47122063449069
aF1
as(I34
I10
I3
tp4514
(lp4515
F109.47122063449069
aF1
as(I21
I3
I2
tp4516
(lp4517
F109.47122063449069
aF1
as(I31
I8
I1
tp4518
(lp4519
F109.47122063449069
aF1
as(I3
I21
tp4520
(lp4521
F1.0833090000000001
aF100
as(I30
I8
I9
tp4522
(lp4523
F109.47122063449069
aF1
as(I4
I22
tp4524
(lp4525
F1.0833090000000001
aF100
as(I28
I7
I6
tp4526
(lp4527
F109.47122063449069
aF1
as(I15
I14
I7
tp4528
(lp4529
F109.47122063449069
aF1
as(I16
I17
tp4530
(lp4531
F1.527126
aF100
as(I2
I19
tp4532
(lp4533
F1.0833090000000001
aF100
as(I9
I33
tp4534
(lp4535
F1.0833090000000001
aF100
as(I50
I16
I49
tp4536
(lp4537
F109.47122063449069
aF1
as(I3
I10
tp4538
(lp4539
F1.527126
aF100
as(I25
I5
I24
tp4540
(lp4541
F109.47122063449069
aF1
as(I44
I14
I15
tp4542
(lp4543
F109.47122063449069
aF1
as(I34
I10
I11
tp4544
(lp4545
F109.47122063449069
aF1
as(I51
I17
I16
tp4546
(lp4547
F109.47122063449069
aF1
as(I20
I3
I2
tp4548
(lp4549
F109.47122063449069
aF1
as(I33
I9
I8
tp4550
(lp4551
F109.47122063449069
aF1
as(I7
I14
tp4552
(lp4553
F1.527126
aF100
as(I23
I4
I1
tp4554
(lp4555
F109.47122063449069
aF1
as(I30
I8
I1
tp4556
(lp4557
F109.47122063449069
aF1
as(I1
I4
tp4558
(lp4559
F1.451533
aF100
as(I31
I8
I30
tp4560
(lp4561
F109.47122063449069
aF1
as(I14
I44
tp4562
(lp4563
F1.0833090000000001
aF100
as(I19
I2
I18
tp4564
(lp4565
F109.47122063449069
aF1
as(I52
I17
I51
tp4566
(lp4567
F109.47122063449069
aF1
as(I2
I3
tp4568
(lp4569
F1.527126
aF100
as(I4
I1
I2
tp4570
(lp4571
F109.47122063449069
aF1
as(I24
I5
I12
tp4572
(lp4573
F109.47122063449069
aF1
as(I52
I17
I16
tp4574
(lp4575
F109.47122063449069
aF1
as(I13
I43
tp4576
(lp4577
F1.0833090000000001
aF100
as(I40
I12
I13
tp4578
(lp4579
F109.47122063449069
aF1
as(I26
I6
I7
tp4580
(lp4581
F109.47122063449069
aF1
as(I48
I15
I47
tp4582
(lp4583
F109.47122063449069
aF1
as(I24
I5
I4
tp4584
(lp4585
F109.47122063449069
aF1
as(I20
I3
I10
tp4586
(lp4587
F109.47122063449069
aF1
as(I33
I9
I32
tp4588
(lp4589
F109.47122063449069
aF1
as(I33
I9
I16
tp4590
(lp4591
F109.47122063449069
aF1
as(I7
I6
I1
tp4592
(lp4593
F109.47122063449069
aF1
as(I16
I49
tp4594
(lp4595
F1.0833090000000001
aF100
as(I10
I11
tp4596
(lp4597
F1.527126
aF100
as(I40
I12
I39
tp4598
(lp4599
F109.47122063449069
aF1
as(I21
I3
I10
tp4600
(lp4601
F109.47122063449069
aF1
as(I18
I2
I3
tp4602
(lp4603
F109.47122063449069
aF1
as(I16
I50
tp4604
(lp4605
F1.0833090000000001
aF100
as(I45
I14
I7
tp4606
(lp4607
F109.47122063449069
aF1
as(I47
I15
I46
tp4608
(lp4609
F109.47122063449069
aF1
as(I8
I1
I4
tp4610
(lp4611
F109.47122063449069
aF1
as(I6
I26
tp4612
(lp4613
F1.0833090000000001
aF100
as(I18
I2
I1
tp4614
(lp4615
F109.47122063449069
aF1
as(I35
I10
I11
tp4616
(lp4617
F109.47122063449069
aF1
as(I7
I29
tp4618
(lp4619
F1.0833090000000001
aF100
as(I11
I38
tp4620
(lp4621
F1.0833090000000001
aF100
as(I10
I34
tp4622
(lp4623
F1.0833090000000001
aF100
as(I13
I12
I5
tp4624
(lp4625
F109.47122063449069
aF1
as(I21
I3
I20
tp4626
(lp4627
F109.47122063449069
aF1
as(I5
I12
tp4628
(lp4629
F1.527126
aF100
as(I3
I2
I1
tp4630
(lp4631
F109.47122063449069
aF1
as(I3
I20
tp4632
(lp4633
F1.0833090000000001
aF100
as(I5
I25
tp4634
(lp4635
F1.0833090000000001
aF100
as(I4
I23
tp4636
(lp4637
F1.0833090000000001
aF100
as(I50
I16
I9
tp4638
(lp4639
F109.47122063449069
aF1
as(I43
I13
I41
tp4640
(lp4641
F109.47122063449069
aF1
as(I43
I13
I12
tp4642
(lp4643
F109.47122063449069
aF1
as(I48
I15
I14
tp4644
(lp4645
F109.47122063449069
aF1
as(I42
I13
I12
tp4646
(lp4647
F109.47122063449069
aF1
as(I1
I2
tp4648
(lp4649
F1.451533
aF100
as(I9
I32
tp4650
(lp4651
F1.0833090000000001
aF100
as(I53
I17
I16
tp4652
(lp4653
F109.47122063449069
aF1
as(I11
I37
tp4654
(lp4655
F1.0833090000000001
aF100
as(I49
I16
I9
tp4656
(lp4657
F109.47122063449069
aF1
as(I8
I30
tp4658
(lp4659
F1.0833090000000001
aF100
as(I38
I11
I37
tp4660
(lp4661
F109.47122063449069
aF1
as(I38
I11
I10
tp4662
(lp4663
F109.47122063449069
aF1
as(I42
I13
I41
tp4664
(lp4665
F109.47122063449069
aF1
as(I19
I2
I3
tp4666
(lp4667
F109.47122063449069
aF1
as(I35
I10
I34
tp4668
(lp4669
F109.47122063449069
aF1
as(I12
I5
I4
tp4670
(lp4671
F109.47122063449069
aF1
as(I53
I17
I51
tp4672
(lp4673
F109.47122063449069
aF1
as(I14
I45
tp4674
(lp4675
F1.0833090000000001
aF100
as(I23
I4
I5
tp4676
(lp4677
F109.47122063449069
aF1
as(I1
I8
tp4678
(lp4679
F1.451533
aF100
as(I19
I2
I1
tp4680
(lp4681
F109.47122063449069
aF1
as(I26
I6
I1
tp4682
(lp4683
F109.47122063449069
aF1
as(I37
I11
I36
tp4684
(lp4685
F109.47122063449069
aF1
as(I13
I42
tp4686
(lp4687
F1.0833090000000001
aF100
astRp4688
(dp4689
g1225
Nsg1226
(dp4690
I1
I0
sI2
I1
sI3
I2
sI4
I3
sI5
I4
sI6
I5
sI7
I6
sI8
I7
sI9
I8
sI10
I9
sI11
I10
sI12
I11
sI13
I12
sI14
I13
sI15
I14
sI16
I15
sI17
I16
sI18
I17
sI19
I18
sI20
I19
sI21
I20
sI22
I21
sI23
I22
sI24
I23
sI25
I24
sI26
I25
sI27
I26
sI28
I27
sI29
I28
sI30
I29
sI31
I30
sI32
I31
sI33
I32
sI34
I33
sI35
I34
sI36
I35
sI37
I36
sI38
I37
sI39
I38
sI40
I39
sI41
I40
sI42
I41
sI43
I42
sI44
I43
sI45
I44
sI46
I45
sI47
I46
sI48
I47
sI49
I48
sI50
I49
sI51
I50
sI52
I51
sI53
I52
ssg1228
I00
sg1229
(lp4691
sg1231
(dp4692
sbsS'planes'
p4693
(lp4694
sS'cctbx_energy_parameters'
p4695
(lp4696
F2
aF0.66666666666666663
aF1
aI1
a(I1
I1
I1
I1
tp4697
asS'UseRestraintValues'
p4698
I01
sb.