ccopy_reg
_reconstructor
p1
(celbow.chemistry.MoleculeClass
MoleculeClass
p2
c__builtin__
list
p3
(lp4
(ielbow.chemistry.AtomClass
AtomClass
p5
(dp6
S'tempFactor'
p7
F20
sS'tmp_id'
p8
I139907888233288
sS'input_xyz'
p9
(ielbow.chemistry.xyzClass
xyzClass
p10
(dp11
S'dotProduct'
p12
I1
sS'angleScale'
p13
F57.295779513082323
sS'y'
F0.53500000000000003
sS'x'
F-0.52500000000000002
sS'xyz'
p14
(F-0.52500000000000002
F0.53500000000000003
F-0.253
tp15
sS'z'
F-0.253
sbsS'starting_xyz'
p16
(ielbow.chemistry.xyzClass
xyzClass
p17
(dp18
g12
I1
sg13
F57.295779513082323
sS'y'
F0
sS'x'
F0
sg14
(F0
F0
F0
tp19
sS'z'
F0
sbsg14
(ielbow.chemistry.xyzClass
xyzClass
p20
(dp21
g12
I1
sg13
F57.295779513082323
sS'y'
F0.43106317143154121
sS'x'
F-0.080208791201794083
sg14
(F-0.080208791201794083
F0.43106317143154121
F-0.83408050040690274
tp22
sS'z'
F-0.83408050040690274
sbsS'number'
p23
I6
sS'chiral_index'
p24
I1
sS'sign'
p25
S''
sS'ring_id'
p26
(lp27
sS'alt_name'
p28
S'C1'
p29
sS'resName'
p30
S'CAM'
p31
sS'exclude'
p32
I00
sS'serial'
p33
S'    1'
p34
sS'ring_atom'
p35
I1
sS'id'
p36
I139907888233288
sS'bonded'
p37
(lp38
(ielbow.chemistry.AtomClass
AtomClass
p39
(dp40
g7
F20
sg8
I139907888233936
sg9
(ielbow.chemistry.xyzClass
xyzClass
p41
(dp42
g12
I1
sg13
F57.295779513082323
sS'y'
F-0.17199999999999999
sS'x'
F0.17100000000000001
sg14
(F0.17100000000000001
F-0.17199999999999999
F-1.4219999999999999
tp43
sS'z'
F-1.4219999999999999
sbsg16
(ielbow.chemistry.xyzClass
xyzClass
p44
(dp45
g12
I1
sg13
F57.295779513082323
sS'y'
F0
sS'x'
F1.3849559295504725
sg14
(F1.3849559295504725
F0
F0
tp46
sS'z'
F0
sbsg14
(ielbow.chemistry.xyzClass
xyzClass
p47
(dp48
g12
I1
sg13
F57.295779513082323
sS'y'
F0.43106317143154121
sS'x'
F1.3047471383486784
sg14
(F1.3047471383486784
F0.43106317143154121
F-0.83408050040690274
tp49
sS'z'
F-0.83408050040690274
sbsg23
I6
sg25
S''
sg26
(lp50
sg28
S'C2'
p51
sg30
S'CAM'
p52
sg32
I00
sg33
S'    2'
p53
sg35
I1
sg36
I139907888233936
sg37
(lp54
g5
a(ielbow.chemistry.AtomClass
AtomClass
p55
(dp56
g7
F20
sg8
I139907888234008
sg9
(ielbow.chemistry.xyzClass
xyzClass
p57
(dp58
g12
I1
sg13
F57.295779513082323
sS'y'
F-0.13800000000000001
sS'x'
F-0.13800000000000001
sg14
(F-0.13800000000000001
F-0.13800000000000001
F-2.589
tp59
sS'z'
F-2.589
sbsg16
(ielbow.chemistry.xyzClass
xyzClass
p60
(dp61
g12
I1
sg13
F57.295779513082323
sS'y'
F-0.34922772614908909
sS'x'
F1.9770176287005798
sg14
(F1.9770176287005798
F-0.34922772614908909
F-0.96424799603050559
tp62
sS'z'
F-0.96424799603050559
sbsg14
(ielbow.chemistry.xyzClass
xyzClass
p63
(dp64
g12
I1
sg13
F57.295779513082323
sS'y'
F0.081835445282452124
sS'x'
F1.8968088374987857
sg14
(F1.8968088374987857
F0.081835445282452124
F-1.7983284964374082
tp65
sS'z'
F-1.7983284964374082
sbsg23
I8
sg25
S''
sg26
(lp66
sg28
S'O'
sg30
S'CAM'
p67
sS'record_name'
p68
S'HETATM'
p69
sg33
S'    3'
p70
sg36
I139907888234008
sg37
(lp71
g39
asS'pi_electrons'
p72
(I2
tp73
sS'index'
p74
I3
sS'pre_pdb_write_index'
p75
NsS'stored_xyz'
p76
g57
sS'occupancy'
p77
F1
sS'charge'
p78
I0
sS'input_index'
p79
I2
sS'cip_done'
p80
S'139907882765488_4'
p81
sS'unique_residue_key'
p82
S'CAM:1:A:'
p83
sS'unique_residue_key_altloc'
p84
S'CAM:1:A:???'
p85
sS'ring_id_backup'
p86
(lp87
sS'chainID'
p88
S'A'
sS'cif_name'
p89
S' O  '
p90
sS'cif_index'
p91
I2
sS'symbol'
p92
S'O'
sS'segID'
p93
S'A'
sS'original_serial'
p94
S'    3'
p95
sS'input_name'
p96
g90
sS'randomised'
p97
I01
sS'cif_energy_type'
p98
S'O'
sS'old_xyz'
p99
g63
sS'name'
p100
g90
sS'z'
F-1.7983284964374082
sS'beginning_xyz'
p101
g57
sS'chiral'
p102
S''
sS'resSeq'
p103
I1
sS'original_index'
p104
I3
sS'element'
p105
S'O'
sS'iCode'
p106
S' '
sS'mass'
p107
F15.9994
sS'y'
F0.081835445282452124
sS'x'
F1.8968088374987857
sS'hcount'
p108
I0
sS'rotation_index'
p109
I2
sba(ielbow.chemistry.AtomClass
AtomClass
p110
(dp111
g7
F20
sg8
I139907888234152
sg9
(ielbow.chemistry.xyzClass
xyzClass
p112
(dp113
g12
I1
sg13
F57.295779513082323
sS'y'
F-0.94299999999999995
sS'x'
F1.3320000000000001
sg14
(F1.3320000000000001
F-0.94299999999999995
F-0.78100000000000003
tp114
sS'z'
F-0.78100000000000003
sbsg16
(ielbow.chemistry.xyzClass
xyzClass
p115
(dp116
g12
I1
sg13
F57.295779513082323
sS'y'
F0
sS'x'
F1.963410814305333
sg14
(F1.963410814305333
F0
F1.1402560491356781
tp117
sS'z'
F1.1402560491356781
sbsg14
(ielbow.chemistry.xyzClass
xyzClass
p118
(dp119
g12
I1
sg13
F57.295779513082323
sS'y'
F0.43106317143154121
sS'x'
F1.8832020231035389
sg14
(F1.8832020231035389
F0.43106317143154121
F0.30617554872877539
tp120
sS'z'
F0.30617554872877539
sbsg23
I6
sg25
S''
sg26
(lp121
sg28
S'C3'
p122
sg30
S'CAM'
p123
sg32
I00
sg33
S'    4'
p124
sg35
I1
sg36
I139907888234152
sg37
(lp125
g39
a(ielbow.chemistry.AtomClass
AtomClass
p126
(dp127
g7
F20
sg8
I139907888234296
sg9
(ielbow.chemistry.xyzClass
xyzClass
p128
(dp129
g12
I1
sg13
F57.295779513082323
sS'y'
F-0.60299999999999998
sS'x'
F1.2470000000000001
sg14
(F1.2470000000000001
F-0.60299999999999998
F0.73799999999999999
tp130
sS'z'
F0.73799999999999999
sbsg16
(ielbow.chemistry.xyzClass
xyzClass
p131
(dp132
g12
I1
sg13
F57.295779513082323
sS'y'
F-0.0087722421998824469
sS'x'
F0.98685083895749126
sg14
(F0.98685083895749126
F-0.0087722421998824469
F2.1854413533973691
tp133
sS'z'
F2.1854413533973691
sbsg14
(ielbow.chemistry.xyzClass
xyzClass
p134
(dp135
g12
I1
sg13
F57.295779513082323
sS'y'
F0.42229092923165878
sS'x'
F0.90664204775569712
sg14
(F0.90664204775569712
F0.42229092923165878
F1.3513608529904664
tp136
sS'z'
F1.3513608529904664
sbsg23
I6
sg24
I2
sg25
S''
sg26
(lp137
sg28
S'C4'
p138
sg30
S'CAM'
p139
sg32
I00
sg33
S'    5'
p140
sg35
I1
sg36
I139907888234296
sg37
(lp141
g110
a(ielbow.chemistry.AtomClass
AtomClass
p142
(dp143
g7
F20
sg8
I139907888234440
sg9
(ielbow.chemistry.xyzClass
xyzClass
p144
(dp145
g12
I1
sg13
F57.295779513082323
sS'y'
F0.89700000000000002
sS'x'
F1.657
sg14
(F1.657
F0.89700000000000002
F0.84099999999999997
tp146
sS'z'
F0.84099999999999997
sbsg16
(ielbow.chemistry.xyzClass
xyzClass
p147
(dp148
g12
I1
sg13
F57.295779513082323
sS'y'
F1.0760057687504248
sS'x'
F0.060279272777285731
sg14
(F0.060279272777285731
F1.0760057687504248
F2.0684545709002693
tp149
sS'z'
F2.0684545709002693
sbsg14
(ielbow.chemistry.xyzClass
xyzClass
p150
(dp151
g12
I1
sg13
F57.295779513082323
sS'y'
F1.5070689401819659
sS'x'
F-0.019929518424508352
sg14
(F-0.019929518424508352
F1.5070689401819659
F1.2343740704933666
tp152
sS'z'
F1.2343740704933666
sbsg23
I6
sg25
S''
sg26
(lp153
sg28
S'C5'
p154
sg30
S'CAM'
p155
sg32
I00
sg33
S'    6'
p156
sg35
I1
sg36
I139907888234440
sg37
(lp157
g126
a(ielbow.chemistry.AtomClass
AtomClass
p158
(dp159
g7
F20
sg8
I139907888290704
sg9
(ielbow.chemistry.xyzClass
xyzClass
p160
(dp161
g12
I1
sg13
F57.295779513082323
sS'y'
F1.663
sS'x'
F0.48399999999999999
sg14
(F0.48399999999999999
F1.663
F0.186
tp162
sS'z'
F0.186
sbsg16
(ielbow.chemistry.xyzClass
xyzClass
p163
(dp164
g12
I1
sg13
F57.295779513082323
sS'y'
F1.0771138126993041
sS'x'
F-0.5289596836067334
sg14
(F-0.5289596836067334
F1.0771138126993041
F0.78224925560792091
tp165
sS'z'
F0.78224925560792091
sbsg14
(ielbow.chemistry.xyzClass
xyzClass
p166
(dp167
g12
I1
sg13
F57.295779513082323
sS'y'
F1.5081769841308452
sS'x'
F-0.60916847480852754
sg14
(F-0.60916847480852754
F1.5081769841308452
F-0.051831244798981824
tp168
sS'z'
F-0.051831244798981824
sbsg23
I6
sg25
S''
sg26
(lp169
sg28
S'C6'
p170
sg30
S'CAM'
p171
sg32
I00
sg33
S'    7'
p172
sg35
I1
sg36
I139907888290704
sg37
(lp173
g5
ag142
a(ielbow.chemistry.AtomClass
AtomClass
p174
(dp175
g7
F20
sg8
I139907888290560
sg9
(ielbow.chemistry.xyzClass
xyzClass
p176
(dp177
g12
I1
sg13
F57.295779513082323
sS'y'
F2.3380000000000001
sS'x'
F0.021999999999999999
sg14
(F0.021999999999999999
F2.3380000000000001
F0.90600000000000003
tp178
sS'z'
F0.90600000000000003
sbsg16
(ielbow.chemistry.xyzClass
xyzClass
p179
(dp180
g12
I1
sg13
F57.295779513082323
sS'y'
F2.0178292873967081
sS'x'
F-0.31441876928757923
sg14
(F-0.31441876928757923
F2.0178292873967081
F0.28972008771129854
tp181
sS'z'
F0.28972008771129854
sbsg14
(ielbow.chemistry.xyzClass
xyzClass
p182
(dp183
g12
I0
sg13
F57.295779513082323
sS'y'
F2.4488924588282495
sS'x'
F-0.39462756048937331
sg14
(F-0.39462756048937331
F2.4488924588282495
F-0.5443604126956042
tp184
sS'z'
F-0.5443604126956042
sbsg23
I1
sg25
S''
sg26
(lp185
sg28
S'1H6'
p186
sg30
S'CAM'
p187
sg68
g69
sg33
S'   17'
p188
sg36
I139907888290560
sg37
(lp189
g158
asg72
Nsg74
I17
sg75
Nsg76
g176
sg77
F1
sg78
I0
sg79
I16
sg80
g81
sg82
S'CAM:1:A:'
p190
sg84
S'CAM:1:A:???'
p191
sg86
(lp192
sg88
S'A'
sg89
S' H61'
p193
sg91
I16
sg92
S'H'
sg93
S'A'
sg94
S'   17'
p194
sg96
g193
sg97
I01
sg98
S'HCH2'
p195
sg99
g182
sg100
g193
sS'z'
F-0.5443604126956042
sg101
g176
sg102
S''
sg103
I1
sg104
I17
sg105
S'H'
sg106
S' '
sg107
F1.0079
sS'y'
F2.4488924588282495
sS'x'
F-0.39462756048937331
sg108
I0
sg109
I16
sba(ielbow.chemistry.AtomClass
AtomClass
p196
(dp197
g7
F20
sg8
I139907888289696
sg9
(ielbow.chemistry.xyzClass
xyzClass
p198
(dp199
g12
I1
sg13
F57.295779513082323
sS'y'
F2.2170000000000001
sS'x'
F0.83199999999999996
sg14
(F0.83199999999999996
F2.2170000000000001
F-0.68500000000000005
tp200
sS'z'
F-0.68500000000000005
sbsg16
(ielbow.chemistry.xyzClass
xyzClass
p201
(dp202
g12
I1
sg13
F57.295779513082323
sS'y'
F0.95847759042038128
sS'x'
F-1.6014591243545633
sg14
(F-1.6014591243545633
F0.95847759042038128
F0.87831582544352349
tp203
sS'z'
F0.87831582544352349
sbsg14
(ielbow.chemistry.xyzClass
xyzClass
p204
(dp205
g12
I0
sg13
F57.295779513082323
sS'y'
F1.3895407618519224
sS'x'
F-1.6816679155563574
sg14
(F-1.6816679155563574
F1.3895407618519224
F0.044235325036620754
tp206
sS'z'
F0.044235325036620754
sbsg23
I1
sg25
S''
sg26
(lp207
sg28
S'2H6'
p208
sg30
S'CAM'
p209
sg68
g69
sg33
S'   18'
p210
sg36
I139907888289696
sg37
(lp211
g158
asg72
Nsg74
I18
sg75
Nsg76
g198
sg77
F1
sg78
I0
sg79
I17
sg80
g81
sg82
S'CAM:1:A:'
p212
sg84
S'CAM:1:A:???'
p213
sg86
(lp214
sg88
S'A'
sg89
S' H62'
p215
sg91
I17
sg92
S'H'
sg93
S'A'
sg94
S'   18'
p216
sg96
g215
sg97
I01
sg98
g195
sg99
g204
sg100
g215
sS'z'
F0.044235325036620754
sg101
g198
sg102
S''
sg103
I1
sg104
I18
sg105
S'H'
sg106
S' '
sg107
F1.0079
sS'y'
F1.3895407618519224
sS'x'
F-1.6816679155563574
sg108
I0
sg109
I17
sbasg72
(I1
tp217
sg74
I7
sg75
Nsg76
g160
sS'cip_priority'
p218
I1
sg84
S'CAM:1:A:???'
p219
sS'overlap'
p220
I01
sg78
I0
sg103
I1
sg79
I6
sg80
S'139907882765488_4'
p221
sg82
S'CAM:1:A:'
p222
sg77
F1
sg86
(lp223
sS'junk'
p224
(ielbow.chemistry.xyzClass
xyzClass
p225
(dp226
g12
I1
sg13
F57.295779513082323
sS'y'
F0.53922249006613554
sS'x'
F-0.8646053809971882
sg14
(F-0.8646053809971882
F0.53922249006613554
F1.5115125624356074
tp227
sS'z'
F1.5115125624356074
sbsg88
S'A'
sg89
S' C6 '
p228
sg91
I6
sg68
g69
sg92
S'C'
sg93
S'A'
sg94
S'    7'
p229
sg96
g228
sg97
I01
sg98
S'CH2'
p230
sg99
g166
sg100
g228
sS'z'
F-0.051831244798981824
sg101
g160
sg102
S''
sS'alternating_ring_index'
p231
I1
sS'ring_bonded'
p232
(lp233
(ielbow.chemistry.RingClass
empty
p234
(dp235
g74
I1
sg9
g10
sg231
I0
sg16
(ielbow.chemistry.xyzClass
xyzClass
p236
(dp237
g12
I0
sg13
F57.295779513082323
sS'y'
F-1.3856406460551023
sS'x'
F0.80000000000000082
sg14
(F0.80000000000000082
F-1.3856406460551023
F0
tp238
sS'z'
F0
sbsg92
S'C'
sg232
(lp239
(ielbow.chemistry.RingClass
empty
p240
(dp241
g74
I2
sg9
g41
sg231
I1
sg16
(ielbow.chemistry.xyzClass
xyzClass
p242
(dp243
g12
I0
sg13
F57.295779513082323
sS'y'
F-1.3856406460551023
sS'x'
F-0.80000000000000016
sg14
(F-0.80000000000000016
F-1.3856406460551023
F0
tp244
sS'z'
F0
sbsg92
S'C'
sg232
(lp245
(ielbow.chemistry.RingClass
empty
p246
(dp247
g74
I4
sg9
g112
sg231
I0
sg16
(ielbow.chemistry.xyzClass
xyzClass
p248
(dp249
g12
I0
sg13
F57.295779513082323
sS'y'
F-4.4408920985006262e-16
sS'x'
F-1.6000000000000005
sg14
(F-1.6000000000000005
F-4.4408920985006262e-16
F0
tp250
sS'z'
F0
sbsg92
S'C'
sg232
(lp251
(ielbow.chemistry.RingClass
empty
p252
(dp253
g74
I5
sg9
g128
sg231
I1
sg16
(ielbow.chemistry.xyzClass
xyzClass
p254
(dp255
g12
I0
sg13
F57.295779513082323
sS'y'
F1.3856406460551018
sS'x'
F-0.8000000000000006
sg14
(F-0.8000000000000006
F1.3856406460551018
F0
tp256
sS'z'
F0
sbsg92
S'C'
sg232
(lp257
(ielbow.chemistry.RingClass
empty
p258
(dp259
g74
I6
sg9
g144
sg231
I0
sg16
(ielbow.chemistry.xyzClass
xyzClass
p260
(dp261
g12
I0
sg13
F57.295779513082323
sS'y'
F1.3856406460551023
sS'x'
F0.79999999999999971
sg14
(F0.79999999999999971
F1.3856406460551023
F0
tp262
sS'z'
F0
sbsg92
S'C'
sg232
(lp263
(ielbow.chemistry.RingClass
empty
p264
(dp265
g74
I7
sg9
g160
sg231
I1
sg16
(ielbow.chemistry.xyzClass
xyzClass
p266
(dp267
g12
I0
sg13
F57.295779513082323
sS'y'
F4.4408920985006262e-16
sS'x'
F1.6000000000000005
sg14
(F1.6000000000000005
F4.4408920985006262e-16
F0
tp268
sS'z'
F0
sbsg92
S'C'
sg232
g233
sg220
I01
sS'ring_indices_list'
p269
(lp270
I0
asg32
I00
sg14
(ielbow.chemistry.xyzClass
xyzClass
p271
(dp272
g12
I1
sg13
F57.295779513082323
sS'y'
F1.3856406460551027
sS'x'
F2.4000000000000008
sg14
(F1.6000000000000001
F0
I2
tp273
sS'z'
I2
sbsbag252
asg220
I01
sg269
(lp274
I0
asg32
I00
sg14
(ielbow.chemistry.xyzClass
xyzClass
p275
(dp276
g12
I1
sg13
F57.295779513082323
sS'y'
F2.7712812921102046
sS'x'
F1.5999999999999999
sg14
(F1.6000000000000001
F0
I2
tp277
sS'z'
I2
sbsbag246
asg220
I01
sg269
(lp278
I0
asg32
I00
sg14
(ielbow.chemistry.xyzClass
xyzClass
p279
(dp280
g12
I1
sg13
F57.295779513082323
sS'y'
F2.7712812921102041
sS'x'
F-4.4408920985006262e-16
sg14
(F1.6000000000000001
F0
I2
tp281
sS'z'
I2
sbsbag240
asg220
I01
sg269
(lp282
I0
asg32
I00
sg14
(ielbow.chemistry.xyzClass
xyzClass
p283
(dp284
g12
I1
sg13
F57.295779513082323
sS'y'
F1.3856406460551018
sS'x'
F-0.80000000000000027
sg14
(F1.6000000000000001
F0
I2
tp285
sS'z'
I2
sbsbag234
asg220
I01
sg269
(lp286
I0
asg32
I00
sg14
(ielbow.chemistry.xyzClass
xyzClass
p287
(dp288
g12
I1
sg13
F57.295779513082323
sS'y'
F0
sS'x'
F0
sg14
(F1.6000000000000001
F0
I2
tp289
sS'z'
I2
sbsS'double_bond'
p290
I01
sbag264
asg220
I01
sg269
(lp291
I0
asg32
I00
sg14
(ielbow.chemistry.xyzClass
xyzClass
p292
(dp293
g12
I1
sg13
F57.295779513082323
sS'y'
F0
sS'x'
F1.600000000000001
sg14
(F0
F0
I2
tp294
sS'z'
I2
sbsbag258
asS'ring_index'
p295
I1
sg105
S'C'
sg106
S' '
sg107
F12.010999999999999
sS'zmatrix_index'
p296
I6
sg269
g270
sS'y'
F1.5081769841308452
sS'x'
F-0.60916847480852754
sg108
I0
sS'cip_levels'
p297
g1
(celbow.chemistry.CIPMixins
PriorityClass
p298
g3
(lp299
I6
a(lp300
I6
aI1
aI1
aa(lp301
I6
aI1
aI1
aa(lp302
I6
aI6
aI1
aa(lp303
I6
aI6
aI6
aI1
aI1
aa(lp304
a(lp305
atRp306
sg104
I7
sg109
I6
sba(ielbow.chemistry.AtomClass
AtomClass
p307
(dp308
g7
F20
sg8
I139907888288616
sg9
(ielbow.chemistry.xyzClass
xyzClass
p309
(dp310
g12
I1
sg13
F57.295779513082323
sS'y'
F1.1910000000000001
sS'x'
F1.7669999999999999
sg14
(F1.7669999999999999
F1.1910000000000001
F1.885
tp311
sS'z'
F1.885
sbsg16
(ielbow.chemistry.xyzClass
xyzClass
p312
(dp313
g12
I1
sg13
F57.295779513082323
sS'y'
F2.0121933511643069
sS'x'
F0.58254554505736955
sg14
(F0.58254554505736955
F2.0121933511643069
F2.2244966833369966
tp314
sS'z'
F2.2244966833369966
sbsg14
(ielbow.chemistry.xyzClass
xyzClass
p315
(dp316
g12
I0
sg13
F57.295779513082323
sS'y'
F2.4432565225958482
sS'x'
F0.50233675385557541
sg14
(F0.50233675385557541
F2.4432565225958482
F1.3904161829300938
tp317
sS'z'
F1.3904161829300938
sbsg23
I1
sg25
S''
sg26
(lp318
sg28
S'1H5'
p319
sg30
S'CAM'
p320
sg68
g69
sg33
S'   15'
p321
sg36
I139907888288616
sg37
(lp322
g142
asg72
Nsg74
I15
sg75
Nsg76
g309
sg77
F1
sg78
I0
sg79
I14
sg80
S'139907882765488_4'
p323
sg82
S'CAM:1:A:'
p324
sg84
S'CAM:1:A:???'
p325
sg86
(lp326
sg88
S'A'
sg89
S' H51'
p327
sg91
I14
sg92
S'H'
sg93
S'A'
sg94
S'   15'
p328
sg96
g327
sg97
I01
sg98
g195
sg99
g315
sg100
g327
sS'z'
F1.3904161829300938
sg101
g309
sg102
S''
sg103
I1
sg104
I15
sg105
S'H'
sg106
S' '
sg107
F1.0079
sS'y'
F2.4432565225958482
sS'x'
F0.50233675385557541
sg108
I0
sg109
I14
sba(ielbow.chemistry.AtomClass
AtomClass
p329
(dp330
g7
F20
sg8
I139907888289264
sg9
(ielbow.chemistry.xyzClass
xyzClass
p331
(dp332
g12
I1
sg13
F57.295779513082323
sS'y'
F1.0780000000000001
sS'x'
F2.5819999999999999
sg14
(F2.5819999999999999
F1.0780000000000001
F0.29399999999999998
tp333
sS'z'
F0.29399999999999998
sbsg16
(ielbow.chemistry.xyzClass
xyzClass
p334
(dp335
g12
I1
sg13
F57.295779513082323
sS'y'
F0.96839994976223509
sS'x'
F-0.71451571713492279
sg14
(F-0.71451571713492279
F0.96839994976223509
F2.8179024348693527
tp336
sS'z'
F2.8179024348693527
sbsg14
(ielbow.chemistry.xyzClass
xyzClass
p337
(dp338
g12
I0
sg13
F57.295779513082323
sS'y'
F1.3994631211937762
sS'x'
F-0.79472450833671693
sg14
(F-0.79472450833671693
F1.3994631211937762
F1.9838219344624499
tp339
sS'z'
F1.9838219344624499
sbsg23
I1
sg25
S''
sg26
(lp340
sg28
S'2H5'
p341
sg30
S'CAM'
p342
sg68
g69
sg33
S'   16'
p343
sg36
I139907888289264
sg37
(lp344
g142
asg72
Nsg74
I16
sg75
Nsg76
g331
sg77
F1
sg78
I0
sg79
I15
sg80
g323
sg82
S'CAM:1:A:'
p345
sg84
S'CAM:1:A:???'
p346
sg86
(lp347
sg88
S'A'
sg89
S' H52'
p348
sg91
I15
sg92
S'H'
sg93
S'A'
sg94
S'   16'
p349
sg96
g348
sg97
I01
sg98
g195
sg99
g337
sg100
g348
sS'z'
F1.9838219344624499
sg101
g331
sg102
S''
sg103
I1
sg104
I16
sg105
S'H'
sg106
S' '
sg107
F1.0079
sS'y'
F1.3994631211937762
sS'x'
F-0.79472450833671693
sg108
I0
sg109
I15
sbasg72
g217
sg74
I6
sg75
Nsg76
g144
sg218
I1
sg84
S'CAM:1:A:???'
p350
sg220
I01
sg78
I0
sg103
I1
sg79
I5
sg80
g81
sg82
S'CAM:1:A:'
p351
sg77
F1
sg86
(lp352
sg224
(ielbow.chemistry.xyzClass
xyzClass
p353
(dp354
g12
I1
sg13
F57.295779513082323
sS'y'
F-0.13441078812530619
sS'x'
F2.0363278758602723
sg14
(F2.0363278758602723
F-0.13441078812530619
F1.4426593510260837
tp355
sS'z'
F1.4426593510260837
sbsg88
S'A'
sg89
S' C5 '
p356
sg91
I5
sg68
g69
sg92
S'C'
sg93
S'A'
sg94
S'    6'
p357
sg96
g356
sg97
I01
sg98
g230
sg99
g150
sg100
g356
sS'z'
F1.2343740704933666
sg101
g144
sg102
S''
sg231
I0
sg232
g263
sg295
I1
sg105
S'C'
sg106
S' '
sg107
F12.010999999999999
sg296
I5
sg269
g274
sS'y'
F1.5070689401819659
sS'x'
F-0.019929518424508352
sg108
I0
sg297
g1
(g298
g3
(lp358
I6
a(lp359
I6
aI1
aI1
aa(lp360
I6
aI1
aI1
aa(lp361
I6
aI6
aI6
aa(lp362
a(lp363
a(lp364
I8
aI8
aI6
aI6
aI6
aI1
aI1
aI1
aatRp365
sg104
I6
sg109
I5
sba(ielbow.chemistry.AtomClass
AtomClass
p366
(dp367
g7
F20
sg8
I139907888290272
sg9
(ielbow.chemistry.xyzClass
xyzClass
p368
(dp369
g12
I1
sg13
F57.295779513082323
sS'y'
F-0.49099999999999999
sS'x'
F-0.308
sg14
(F-0.308
F-0.49099999999999999
F0.91200000000000003
tp370
sS'z'
F0.91200000000000003
sbsg16
(ielbow.chemistry.xyzClass
xyzClass
p371
(dp372
g12
I1
sg13
F57.295779513082323
sS'y'
F-1.1048616776702804
sS'x'
F-0.056605975043827347
sg14
(F-0.056605975043827347
F-1.1048616776702804
F1.2873964307420593
tp373
sS'z'
F1.2873964307420593
sbsg14
(ielbow.chemistry.xyzClass
xyzClass
p374
(dp375
g12
I1
sg13
F57.295779513082323
sS'y'
F-0.67379850623873927
sS'x'
F-0.13681476624562144
sg14
(F-0.13681476624562144
F-0.67379850623873927
F0.4533159303351566
tp376
sS'z'
F0.4533159303351566
sbsg23
I6
sg25
S''
sg26
(lp377
sg28
S'C7'
p378
sg30
S'CAM'
p379
sg68
g69
sg33
S'    8'
p380
sg35
I1
sg36
I139907888290272
sg37
(lp381
g5
ag126
a(ielbow.chemistry.AtomClass
AtomClass
p382
(dp383
g7
F20
sg8
I139907888289552
sg9
(ielbow.chemistry.xyzClass
xyzClass
p384
(dp385
g12
I1
sg13
F57.295779513082323
sS'y'
F-1.8220000000000001
sS'x'
F-1.014
sg14
(F-1.014
F-1.8220000000000001
F0.64500000000000002
tp386
sS'z'
F0.64500000000000002
sbsg16
(ielbow.chemistry.xyzClass
xyzClass
p387
(dp388
g12
I1
sg13
F57.295779513082323
sS'y'
F-2.4376270409886542
sS'x'
F0.61528753769567535
sg14
(F0.61528753769567535
F-2.4376270409886542
F0.96151350736087904
tp389
sS'z'
F0.96151350736087904
sbsg14
(ielbow.chemistry.xyzClass
xyzClass
p390
(dp391
g12
I1
sg13
F57.295779513082323
sS'y'
F-2.0065638695571129
sS'x'
F0.53507874649388132
sg14
(F0.53507874649388132
F-2.0065638695571129
F0.1274330069539763
tp392
sS'z'
F0.1274330069539763
sbsg23
I6
sg25
S''
sg26
(lp393
sg28
S'C8'
p394
sg30
S'CAM'
p395
sg68
g69
sg33
S'    9'
p396
sg36
I139907888289552
sg37
(lp397
g366
a(ielbow.chemistry.AtomClass
AtomClass
p398
(dp399
g7
F20
sg8
I139907888288544
sg9
(ielbow.chemistry.xyzClass
xyzClass
p400
(dp401
g12
I1
sg13
F57.295779513082323
sS'y'
F-2.5369999999999999
sS'x'
F-0.748
sg14
(F-0.748
F-2.5369999999999999
F1.4239999999999999
tp402
sS'z'
F1.4239999999999999
sbsg16
(ielbow.chemistry.xyzClass
xyzClass
p403
(dp404
g12
I1
sg13
F57.295779513082323
sS'y'
F-2.3068022731902098
sS'x'
F1.2900758660330771
sg14
(F1.2900758660330771
F-2.3068022731902098
F0.12419398558254502
tp405
sS'z'
F0.12419398558254502
sbsg14
(ielbow.chemistry.xyzClass
xyzClass
p406
(dp407
g12
I0
sg13
F57.295779513082323
sS'y'
F-1.8757391017586686
sS'x'
F1.209867074831283
sg14
(F1.209867074831283
F-1.8757391017586686
F-0.70988651482435772
tp408
sS'z'
F-0.70988651482435772
sbsg23
I1
sg25
S''
sg26
(lp409
sg28
S'1H8'
p410
sg30
S'CAM'
p411
sg68
g69
sg33
S'   19'
p412
sg36
I139907888288544
sg37
(lp413
g382
asg72
Nsg74
I19
sg75
Nsg76
g400
sg77
F1
sg78
I0
sg79
I18
sg80
g221
sg82
S'CAM:1:A:'
p414
sg84
S'CAM:1:A:???'
p415
sg86
(lp416
sg88
S'A'
sg89
S' H81'
p417
sg91
I18
sg92
S'H'
sg93
S'A'
sg94
S'   19'
p418
sg96
g417
sg97
I01
sg98
S'HCH3'
p419
sg99
g406
sg100
g417
sS'z'
F-0.70988651482435772
sg101
g400
sg102
S''
sg103
I1
sg104
I19
sg105
S'H'
sg106
S' '
sg107
F1.0079
sS'y'
F-1.8757391017586686
sS'x'
F1.209867074831283
sg108
I0
sg109
I18
sba(ielbow.chemistry.AtomClass
AtomClass
p420
(dp421
g7
F20
sg8
I139907888289408
sg9
(ielbow.chemistry.xyzClass
xyzClass
p422
(dp423
g12
I1
sg13
F57.295779513082323
sS'y'
F-1.6679999999999999
sS'x'
F-2.093
sg14
(F-2.093
F-1.6679999999999999
F0.64700000000000002
tp424
sS'z'
F0.64700000000000002
sbsg16
(ielbow.chemistry.xyzClass
xyzClass
p425
(dp426
g12
I1
sg13
F57.295779513082323
sS'y'
F-3.1699470886209919
sS'x'
F-0.14065334228552195
sg14
(F-0.14065334228552195
F-3.1699470886209919
F0.70496112812805156
tp427
sS'z'
F0.70496112812805156
sbsg14
(ielbow.chemistry.xyzClass
xyzClass
p428
(dp429
g12
I0
sg13
F57.295779513082323
sS'y'
F-2.7388839171894506
sS'x'
F-0.22086213348731604
sg14
(F-0.22086213348731604
F-2.7388839171894506
F-0.12911937227885117
tp430
sS'z'
F-0.12911937227885117
sbsg23
I1
sg25
S''
sg26
(lp431
sg28
S'2H8'
p432
sg30
S'CAM'
p433
sg68
g69
sg33
S'   20'
p434
sg36
I139907888289408
sg37
(lp435
g382
asg72
Nsg74
I20
sg75
Nsg76
g422
sg77
F1
sg78
I0
sg79
I19
sg80
g221
sg82
S'CAM:1:A:'
p436
sg84
S'CAM:1:A:???'
p437
sg86
(lp438
sg88
S'A'
sg89
S' H82'
p439
sg91
I19
sg92
S'H'
sg93
S'A'
sg94
S'   20'
p440
sg96
g439
sg97
I01
sg98
g419
sg99
g428
sg100
g439
sS'z'
F-0.12911937227885117
sg101
g422
sg102
S''
sg103
I1
sg104
I20
sg105
S'H'
sg106
S' '
sg107
F1.0079
sS'y'
F-2.7388839171894506
sS'x'
F-0.22086213348731604
sg108
I0
sg109
I19
sba(ielbow.chemistry.AtomClass
AtomClass
p441
(dp442
g7
F20
sg8
I139907888288832
sg9
(ielbow.chemistry.xyzClass
xyzClass
p443
(dp444
g12
I1
sg13
F57.295779513082323
sS'y'
F-2.21
sS'x'
F-0.70399999999999996
sg14
(F-0.70399999999999996
F-2.21
F-0.32400000000000001
tp445
sS'z'
F-0.32400000000000001
sbsg16
(ielbow.chemistry.xyzClass
xyzClass
p446
(dp447
g12
I1
sg13
F57.295779513082323
sS'y'
F-2.7814594986321928
sS'x'
F1.172895483863607
sg14
(F1.172895483863607
F-2.7814594986321928
F1.8243060716091959
tp448
sS'z'
F1.8243060716091959
sbsg14
(ielbow.chemistry.xyzClass
xyzClass
p449
(dp450
g12
I0
sg13
F57.295779513082323
sS'y'
F-2.3503963272006514
sS'x'
F1.0926866926618128
sg14
(F1.0926866926618128
F-2.3503963272006514
F0.99022557120229315
tp451
sS'z'
F0.99022557120229315
sbsg23
I1
sg25
S''
sg26
(lp452
sg28
S'3H8'
p453
sg30
S'CAM'
p454
sg68
g69
sg33
S'   21'
p455
sg36
I139907888288832
sg37
(lp456
g382
asg72
Nsg74
I21
sg75
Nsg76
g443
sg77
F1
sg78
I0
sg79
I20
sg80
g221
sg82
S'CAM:1:A:'
p457
sg84
S'CAM:1:A:???'
p458
sg86
(lp459
sg88
S'A'
sg89
S' H83'
p460
sg91
I20
sg92
S'H'
sg93
S'A'
sg94
S'   21'
p461
sg96
g460
sg97
I01
sg98
g419
sg99
g449
sg100
g460
sS'z'
F0.99022557120229315
sg101
g443
sg102
S''
sg103
I1
sg104
I21
sg105
S'H'
sg106
S' '
sg107
F1.0079
sS'y'
F-2.3503963272006514
sS'x'
F1.0926866926618128
sg108
I0
sg109
I20
sbasg72
g217
sg74
I9
sg75
Nsg76
g384
sg77
F1
sg78
I0
sg79
I8
sg80
S'139907882765488_4'
p462
sg82
S'CAM:1:A:'
p463
sg84
S'CAM:1:A:???'
p464
sg86
(lp465
sg88
S'A'
sg89
S' C8 '
p466
sg91
I8
sg92
S'C'
sg93
S'A'
sg94
S'    9'
p467
sg96
g466
sg97
I01
sg98
S'CH3'
p468
sg99
g390
sg100
g466
sS'z'
F0.1274330069539763
sg101
g384
sg102
S''
sg103
I1
sg104
I9
sg105
S'C'
sg106
S' '
sg107
F12.010999999999999
sS'y'
F-2.0065638695571129
sS'x'
F0.53507874649388132
sg108
I0
sg109
I8
sba(ielbow.chemistry.AtomClass
AtomClass
p469
(dp470
g7
F20
sg8
I139907888288400
sg9
(ielbow.chemistry.xyzClass
xyzClass
p471
(dp472
g12
I1
sg13
F57.295779513082323
sS'y'
F0.090999999999999998
sS'x'
F-0.69399999999999995
sg14
(F-0.69399999999999995
F0.090999999999999998
F2.2730000000000001
tp473
sS'z'
F2.2730000000000001
sbsg16
(ielbow.chemistry.xyzClass
xyzClass
p474
(dp475
g12
I1
sg13
F57.295779513082323
sS'y'
F-1.2400162448286067
sS'x'
F-1.4510543211686775
sg14
(F-1.4510543211686775
F-1.2400162448286067
F1.899398294857257
tp476
sS'z'
F1.899398294857257
sbsg14
(ielbow.chemistry.xyzClass
xyzClass
p477
(dp478
g12
I1
sg13
F57.295779513082323
sS'y'
F-0.80895307339706557
sS'x'
F-1.5312631123704716
sg14
(F-1.5312631123704716
F-0.80895307339706557
F1.0653177944503542
tp479
sS'z'
F1.0653177944503542
sbsg23
I6
sg25
S''
sg26
(lp480
sg28
S'C9'
p481
sg30
S'CAM'
p482
sg68
g69
sg33
S'   10'
p483
sg36
I139907888288400
sg37
(lp484
g366
a(ielbow.chemistry.AtomClass
AtomClass
p485
(dp486
g7
F20
sg8
I139907888288688
sg9
(ielbow.chemistry.xyzClass
xyzClass
p487
(dp488
g12
I1
sg13
F57.295779513082323
sS'y'
F-0.61299999999999999
sS'x'
F-0.42599999999999999
sg14
(F-0.42599999999999999
F-0.61299999999999999
F3.0600000000000001
tp489
sS'z'
F3.0600000000000001
sbsg16
(ielbow.chemistry.xyzClass
xyzClass
p490
(dp491
g12
I1
sg13
F57.295779513082323
sS'y'
F-0.78880777422993842
sS'x'
F-1.458569748245317
sg14
(F-1.458569748245317
F-0.78880777422993842
F2.8842398170814505
tp492
sS'z'
F2.8842398170814505
sbsg14
(ielbow.chemistry.xyzClass
xyzClass
p493
(dp494
g12
I0
sg13
F57.295779513082323
sS'y'
F-0.3577446027983972
sS'x'
F-1.5387785394471112
sg14
(F-1.5387785394471112
F-0.3577446027983972
F2.0501593166745478
tp495
sS'z'
F2.0501593166745478
sbsg23
I1
sg25
S''
sg26
(lp496
sg28
S'1H9'
p497
sg30
S'CAM'
p498
sg68
g69
sg33
S'   22'
p499
sg36
I139907888288688
sg37
(lp500
g469
asg72
Nsg74
I22
sg75
Nsg76
g487
sg77
F1
sg78
I0
sg79
I21
sg80
g221
sg82
S'CAM:1:A:'
p501
sg84
S'CAM:1:A:???'
p502
sg86
(lp503
sg88
S'A'
sg89
S' H91'
p504
sg91
I21
sg92
S'H'
sg93
S'A'
sg94
S'   22'
p505
sg96
g504
sg97
I01
sg98
g419
sg99
g493
sg100
g504
sS'z'
F2.0501593166745478
sg101
g487
sg102
S''
sg103
I1
sg104
I22
sg105
S'H'
sg106
S' '
sg107
F1.0079
sS'y'
F-0.3577446027983972
sS'x'
F-1.5387785394471112
sg108
I0
sg109
I21
sba(ielbow.chemistry.AtomClass
AtomClass
p506
(dp507
g7
F20
sg8
I139907888287896
sg9
(ielbow.chemistry.xyzClass
xyzClass
p508
(dp509
g12
I1
sg13
F57.295779513082323
sS'y'
F1.03
sS'x'
F-0.16200000000000001
sg14
(F-0.16200000000000001
F1.03
F2.4300000000000002
tp510
sS'z'
F2.4300000000000002
sbsg16
(ielbow.chemistry.xyzClass
xyzClass
p511
(dp512
g12
I1
sg13
F57.295779513082323
sS'y'
F-2.2888754400735953
sS'x'
F-1.7095303463872578
sg14
(F-1.7095303463872578
F-2.2888754400735953
F1.9809024200181238
tp513
sS'z'
F1.9809024200181238
sbsg14
(ielbow.chemistry.xyzClass
xyzClass
p514
(dp515
g12
I0
sg13
F57.295779513082323
sS'y'
F-1.8578122686420542
sS'x'
F-1.7897391375890519
sg14
(F-1.7897391375890519
F-1.8578122686420542
F1.146821919611221
tp516
sS'z'
F1.146821919611221
sbsg23
I1
sg25
S''
sg26
(lp517
sg28
S'2H9'
p518
sg30
S'CAM'
p519
sg68
g69
sg33
S'   23'
p520
sg36
I139907888287896
sg37
(lp521
g469
asg72
Nsg74
I23
sg75
Nsg76
g508
sg77
F1
sg78
I0
sg79
I22
sg80
g221
sg82
S'CAM:1:A:'
p522
sg84
S'CAM:1:A:???'
p523
sg86
(lp524
sg88
S'A'
sg89
S' H92'
p525
sg91
I22
sg92
S'H'
sg93
S'A'
sg94
S'   23'
p526
sg96
g525
sg97
I01
sg98
g419
sg99
g514
sg100
g525
sS'z'
F1.146821919611221
sg101
g508
sg102
S''
sg103
I1
sg104
I23
sg105
S'H'
sg106
S' '
sg107
F1.0079
sS'y'
F-1.8578122686420542
sS'x'
F-1.7897391375890519
sg108
I0
sg109
I22
sba(ielbow.chemistry.AtomClass
AtomClass
p527
(dp528
g7
F20
sg8
I139907888288040
sg9
(ielbow.chemistry.xyzClass
xyzClass
p529
(dp530
g12
I1
sg13
F57.295779513082323
sS'y'
F0.27400000000000002
sS'x'
F-1.768
sg14
(F-1.768
F0.27400000000000002
F2.2989999999999999
tp531
sS'z'
F2.2989999999999999
sbsg16
(ielbow.chemistry.xyzClass
xyzClass
p532
(dp533
g12
I1
sg13
F57.295779513082323
sS'y'
F-0.73830816630231144
sS'x'
F-2.173349949677557
sg14
(F-2.173349949677557
F-0.73830816630231144
F1.2668349237556615
tp534
sS'z'
F1.2668349237556615
sbsg14
(ielbow.chemistry.xyzClass
xyzClass
p535
(dp536
g12
I0
sg13
F57.295779513082323
sS'y'
F-0.30724499487077023
sS'x'
F-2.2535587408793512
sg14
(F-2.2535587408793512
F-0.30724499487077023
F0.4327544233487588
tp537
sS'z'
F0.4327544233487588
sbsg23
I1
sg25
S''
sg26
(lp538
sg28
S'3H9'
p539
sg30
S'CAM'
p540
sg68
g69
sg33
S'   24'
p541
sg36
I139907888288040
sg37
(lp542
g469
asg72
Nsg74
I24
sg75
Nsg76
g529
sg77
F1
sg78
I0
sg79
I23
sg80
g221
sg82
S'CAM:1:A:'
p543
sg84
S'CAM:1:A:???'
p544
sg86
(lp545
sg88
S'A'
sg89
S' H93'
p546
sg91
I23
sg92
S'H'
sg93
S'A'
sg94
S'   24'
p547
sg96
g546
sg97
I01
sg98
g419
sg99
g535
sg100
g546
sS'z'
F0.4327544233487588
sg101
g529
sg102
S''
sg103
I1
sg104
I24
sg105
S'H'
sg106
S' '
sg107
F1.0079
sS'y'
F-0.30724499487077023
sS'x'
F-2.2535587408793512
sg108
I0
sg109
I23
sbasg72
g217
sg74
I10
sg75
Nsg76
g471
sg77
F1
sg78
I0
sg79
I9
sg80
g462
sg82
S'CAM:1:A:'
p548
sg84
S'CAM:1:A:???'
p549
sg86
(lp550
sg88
S'A'
sg89
S' C9 '
p551
sg91
I9
sg92
S'C'
sg93
S'A'
sg94
S'   10'
p552
sg96
g551
sg97
I01
sg98
g468
sg99
g477
sg100
g551
sS'z'
F1.0653177944503542
sg101
g471
sg102
S''
sg103
I1
sg104
I10
sg105
S'C'
sg106
S' '
sg107
F12.010999999999999
sS'y'
F-0.80895307339706557
sS'x'
F-1.5312631123704716
sg108
I0
sg109
I9
sbasg72
g217
sg74
I8
sg75
Nsg76
g368
sg218
I3
sg77
F1
sg78
I0
sg79
I7
sg80
S'139907882765488_4'
p553
sg82
S'CAM:1:A:'
p554
sg84
S'CAM:1:A:???'
p555
sg86
(lp556
sg224
(ielbow.chemistry.xyzClass
xyzClass
p557
(dp558
g12
I1
sg13
F57.295779513082323
sS'y'
F-1.0401961737339609
sS'x'
F1.8819474565770573
sg14
(F1.8819474565770573
F-1.0401961737339609
F-0.50179331607649591
tp559
sS'z'
F-0.50179331607649591
sbsg88
S'A'
sg89
S' C7 '
p560
sg91
I7
sg92
S'C'
sg93
S'A'
sg94
S'    8'
p561
sg96
g560
sg97
I01
sg98
S'CT'
p562
sg99
g374
sg100
g560
sS'z'
F0.4533159303351566
sg101
g368
sg102
S''
sg103
I1
sg104
I8
sg105
S'C'
sg106
S' '
sg107
F12.010999999999999
sS'y'
F-0.67379850623873927
sS'x'
F-0.13681476624562144
sg108
I0
sg297
g1
(g298
g3
(lp563
I6
a(lp564
I6
aI6
aI6
aa(lp565
I6
aI6
aI6
aI1
aI1
aI1
aI1
aI1
aI1
aa(lp566
I1
aI1
aI1
aI6
aI1
aI1
aI8
aI8
aI6
aa(lp567
I1
aI1
aa(lp568
a(lp569
I1
aI1
aatRp570
sg109
I7
sba(ielbow.chemistry.AtomClass
AtomClass
p571
(dp572
g7
F20
sg8
I139907888289480
sg9
(ielbow.chemistry.xyzClass
xyzClass
p573
(dp574
g12
I1
sg13
F57.295779513082323
sS'y'
F-1.288
sS'x'
F1.7629999999999999
sg14
(F1.7629999999999999
F-1.288
F1.411
tp575
sS'z'
F1.411
sbsg16
(ielbow.chemistry.xyzClass
xyzClass
p576
(dp577
g12
I1
sg13
F57.295779513082323
sS'y'
F-0.34657335615903684
sS'x'
F1.2781995881707735
sg14
(F1.2781995881707735
F-0.34657335615903684
F3.1726417906039228
tp578
sS'z'
F3.1726417906039228
sbsg14
(ielbow.chemistry.xyzClass
xyzClass
p579
(dp580
g12
I0
sg13
F57.295779513082323
sS'y'
F0.084489815272504376
sS'x'
F1.1979907969689794
sg14
(F1.1979907969689794
F0.084489815272504376
F2.3385612901970201
tp581
sS'z'
F2.3385612901970201
sbsg23
I1
sg25
S''
sg26
(lp582
sg28
S'H4'
p583
sg30
S'CAM'
p584
sg68
g69
sg33
S'   14'
p585
sg36
I139907888289480
sg37
(lp586
g126
asg72
Nsg74
I14
sg75
Nsg76
g573
sg218
I0
sg77
F1
sg78
I0
sg79
I13
sg80
S'139907882765488_0'
p587
sg82
S'CAM:1:A:'
p588
sg84
S'CAM:1:A:???'
p589
sg86
(lp590
sg224
(ielbow.chemistry.xyzClass
xyzClass
p591
(dp592
g12
I1
sg13
F57.295779513082323
sS'y'
F1.0922830699151116
sS'x'
F2.0456573737915855
sg14
(F2.0456573737915855
F1.0922830699151116
F-0.73331410131713337
tp593
sS'z'
F-0.73331410131713337
sbsg88
S'A'
sg89
S' H4 '
p594
sg91
I13
sg92
S'H'
sg93
S'A'
sg94
S'   14'
p595
sg96
g594
sg97
I01
sg98
S'HCH1'
p596
sg99
g579
sg100
g594
sS'z'
F2.3385612901970201
sg101
g573
sg102
S''
sg103
I1
sg104
I14
sg105
S'H'
sg106
S' '
sg107
F1.0079
sS'y'
F0.084489815272504376
sS'x'
F1.1979907969689794
sg108
I0
sg297
g1
(g298
g3
(lp597
I1
a(lp598
a(lp599
a(lp600
a(lp601
a(lp602
a(lp603
atRp604
sg109
I13
sbasg72
g217
sg74
I5
sg75
Nsg76
g128
sg84
S'CAM:1:A:???'
p605
sg220
I01
sg78
I0
sg103
I1
sg79
I4
sg82
S'CAM:1:A:'
p606
sg77
F1
sg86
(lp607
sg224
(ielbow.chemistry.xyzClass
xyzClass
p608
(dp609
g12
I1
sg13
F57.295779513082323
sS'y'
F-0.14564038299436191
sS'x'
F1.5265185324610122
sg14
(F1.5265185324610122
F-0.14564038299436191
F0.00085908876766976829
tp610
sS'z'
F0.00085908876766976829
sbsg88
S'A'
sg89
S' C4 '
p611
sg91
I4
sg68
g69
sg92
S'C'
sg93
S'A'
sg94
S'    5'
p612
sg96
g611
sg97
I01
sg98
S'CH1'
p613
sg99
g134
sg100
g611
sS'z'
F1.3513608529904664
sg101
g128
sg102
S'R'
sg231
I1
sg232
g257
sg295
I1
sg105
S'C'
sg106
S' '
sg107
F12.010999999999999
sg296
I4
sg269
g278
sS'y'
F0.42229092923165878
sS'x'
F0.90664204775569712
sg108
I0
sg297
g1
(g298
g3
(ltRp614
sg104
I5
sg109
I4
sba(ielbow.chemistry.AtomClass
AtomClass
p615
(dp616
g7
F20
sg8
I139907888288904
sg9
(ielbow.chemistry.xyzClass
xyzClass
p617
(dp618
g12
I1
sg13
F57.295779513082323
sS'y'
F-0.58899999999999997
sS'x'
F2.2850000000000001
sg14
(F2.2850000000000001
F-0.58899999999999997
F-1.175
tp619
sS'z'
F-1.175
sbsg16
(ielbow.chemistry.xyzClass
xyzClass
p620
(dp621
g12
I1
sg13
F57.295779513082323
sS'y'
F-0.88042247753340541
sS'x'
F2.5888015168974796
sg14
(F2.5888015168974796
F-0.88042247753340541
F1.2257026385716621
tp622
sS'z'
F1.2257026385716621
sbsg14
(ielbow.chemistry.xyzClass
xyzClass
p623
(dp624
g12
I0
sg13
F57.295779513082323
sS'y'
F-0.4493593061018642
sS'x'
F2.5085927256956855
sg14
(F2.5085927256956855
F-0.4493593061018642
F0.39162213816475933
tp625
sS'z'
F0.39162213816475933
sbsg23
I1
sg25
S''
sg26
(lp626
sg28
S'1H3'
p627
sg30
S'CAM'
p628
sg68
g69
sg33
S'   12'
p629
sg36
I139907888288904
sg37
(lp630
g110
asg72
Nsg74
I12
sg75
Nsg76
g617
sg77
F1
sg78
I0
sg79
I11
sg80
S'139907882765488_4'
p631
sg82
S'CAM:1:A:'
p632
sg84
S'CAM:1:A:???'
p633
sg86
(lp634
sg88
S'A'
sg89
S' H31'
p635
sg91
I11
sg92
S'H'
sg93
S'A'
sg94
S'   12'
p636
sg96
g635
sg97
I01
sg98
g195
sg99
g623
sg100
g635
sS'z'
F0.39162213816475933
sg101
g617
sg102
S''
sg103
I1
sg104
I12
sg105
S'H'
sg106
S' '
sg107
F1.0079
sS'y'
F-0.4493593061018642
sS'x'
F2.5085927256956855
sg108
I0
sg109
I11
sba(ielbow.chemistry.AtomClass
AtomClass
p637
(dp638
g7
F20
sg8
I139907888289984
sg9
(ielbow.chemistry.xyzClass
xyzClass
p639
(dp640
g12
I1
sg13
F57.295779513082323
sS'y'
F-2.0129999999999999
sS'x'
F1.2210000000000001
sg14
(F1.2210000000000001
F-2.0129999999999999
F-0.95899999999999996
tp641
sS'z'
F-0.95899999999999996
sbsg16
(ielbow.chemistry.xyzClass
xyzClass
p642
(dp643
g12
I1
sg13
F57.295779513082323
sS'y'
F0.88725975809382274
sS'x'
F2.5783218286483374
sg14
(F2.5783218286483374
F0.88725975809382274
F1.2308814075512382
tp644
sS'z'
F1.2308814075512382
sbsg14
(ielbow.chemistry.xyzClass
xyzClass
p645
(dp646
g12
I0
sg13
F57.295779513082323
sS'y'
F1.318322929525364
sS'x'
F2.4981130374465432
sg14
(F2.4981130374465432
F1.318322929525364
F0.39680090714433547
tp647
sS'z'
F0.39680090714433547
sbsg23
I1
sg25
S''
sg26
(lp648
sg28
S'2H3'
p649
sg30
S'CAM'
p650
sg68
g69
sg33
S'   13'
p651
sg36
I139907888289984
sg37
(lp652
g110
asg72
Nsg74
I13
sg75
Nsg76
g639
sg77
F1
sg78
I0
sg79
I12
sg80
g631
sg82
S'CAM:1:A:'
p653
sg84
S'CAM:1:A:???'
p654
sg86
(lp655
sg88
S'A'
sg89
S' H32'
p656
sg91
I12
sg92
S'H'
sg93
S'A'
sg94
S'   13'
p657
sg96
g656
sg97
I01
sg98
g195
sg99
g645
sg100
g656
sS'z'
F0.39680090714433547
sg101
g639
sg102
S''
sg103
I1
sg104
I13
sg105
S'H'
sg106
S' '
sg107
F1.0079
sS'y'
F1.318322929525364
sS'x'
F2.4981130374465432
sg108
I0
sg109
I12
sbasg72
g217
sg74
I4
sg75
Nsg76
g112
sg218
I2
sg84
S'CAM:1:A:???'
p658
sg220
I01
sg78
I0
sg103
I1
sg79
I3
sg80
g81
sg82
S'CAM:1:A:'
p659
sg77
F1
sg86
(lp660
sg224
(ielbow.chemistry.xyzClass
xyzClass
p661
(dp662
g12
I1
sg13
F57.295779513082323
sS'y'
F-0.13441078811908311
sS'x'
F-0.0027602386899272858
sg14
(F-0.0027602386899272858
F-0.13441078811908311
F0.00080631780378960451
tp663
sS'z'
F0.00080631780378960451
sbsg88
S'A'
sg89
S' C3 '
p664
sg91
I3
sg68
g69
sg92
S'C'
sg93
S'A'
sg94
S'    4'
p665
sg96
g664
sg97
I01
sg98
g230
sg99
g118
sg100
g664
sS'z'
F0.30617554872877539
sg101
g112
sg102
S''
sg231
I0
sg232
g251
sg295
I1
sg105
S'C'
sg106
S' '
sg107
F12.010999999999999
sg296
I3
sg269
g282
sS'y'
F0.43106317143154121
sS'x'
F1.8832020231035389
sg108
I0
sg297
g1
(g298
g3
(lp666
I6
a(lp667
I6
aI1
aI1
aa(lp668
I8
aI8
aI6
aa(lp669
I6
aI6
aI6
aa(lp670
a(lp671
I1
aI1
aI1
aI1
aI1
aI1
aa(lp672
I1
aI1
aI1
aI6
aI6
aI6
aI1
aI1
aatRp673
sg104
I4
sg109
I3
sbasg72
g217
sg74
I2
sg75
Nsg76
g41
sg218
I3
sg290
I01
sg84
S'CAM:1:A:???'
p674
sg220
I01
sg78
I0
sg103
I1
sg79
I1
sg80
g221
sg82
S'CAM:1:A:'
p675
sg77
F1
sg86
(lp676
sg224
(ielbow.chemistry.xyzClass
xyzClass
p677
(dp678
g12
I1
sg13
F57.295779513082323
sS'y'
F0.53922249006613754
sS'x'
F1.7132695039948924
sg14
(F1.7132695039948924
F0.53922249006613754
F-0.31132024979278516
tp679
sS'z'
F-0.31132024979278516
sbsg88
S'A'
sg89
S' C2 '
p680
sg91
I1
sg68
g69
sg92
S'C'
sg93
S'A'
sg94
S'    2'
p681
sg96
g680
sg97
I01
sg98
S'C'
sg99
g47
sg100
g680
sS'z'
F-0.83408050040690274
sg101
g41
sg102
S''
sg231
I1
sg232
g245
sg295
I1
sg105
S'C'
sg106
S' '
sg107
F12.010999999999999
sg296
I2
sg269
g286
sS'y'
F0.43106317143154121
sS'x'
F1.3047471383486784
sg108
I0
sg297
g1
(g298
g3
(lp682
I6
a(lp683
I8
aI8
aI6
aa(lp684
I6
aI1
aI1
aa(lp685
I6
aI6
aI1
aa(lp686
a(lp687
I1
aI1
aI1
aI1
aI1
aI1
aI1
aI1
aa(lp688
I6
aI6
aI6
aI1
aI1
aatRp689
sg104
I2
sg109
I1
sbag158
ag366
a(ielbow.chemistry.AtomClass
AtomClass
p690
(dp691
g7
F20
sg8
I139907888289840
sg9
(ielbow.chemistry.xyzClass
xyzClass
p692
(dp693
g12
I1
sg13
F57.295779513082323
sS'y'
F0.98799999999999999
sS'x'
F-1.9670000000000001
sg14
(F-1.9670000000000001
F0.98799999999999999
F-0.49199999999999999
tp694
sS'z'
F-0.49199999999999999
sbsg16
(ielbow.chemistry.xyzClass
xyzClass
p695
(dp696
g12
I1
sg13
F57.295779513082323
sS'y'
F-0.4812380034445064
sS'x'
F-0.9131786962046774
sg14
(F-0.9131786962046774
F-0.4812380034445064
F-1.6372255109121399
tp697
sS'z'
F-1.6372255109121399
sbsg14
(ielbow.chemistry.xyzClass
xyzClass
p698
(dp699
g12
I1
sg13
F57.295779513082323
sS'y'
F-0.050174832012965187
sS'x'
F-0.99338748740647143
sg14
(F-0.99338748740647143
F-0.050174832012965187
F-2.4713060113190428
tp700
sS'z'
F-2.4713060113190428
sbsg23
I6
sg25
S''
sg26
(lp701
sg28
S'C10'
p702
sg30
S'CAM'
p703
sg68
g69
sg33
S'   11'
p704
sg36
I139907888289840
sg37
(lp705
g5
a(ielbow.chemistry.AtomClass
AtomClass
p706
(dp707
g7
F20
sg8
I139907888288184
sg9
(ielbow.chemistry.xyzClass
xyzClass
p708
(dp709
g12
I1
sg13
F57.295779513082323
sS'y'
F1.7250000000000001
sS'x'
F-1.988
sg14
(F-1.988
F1.7250000000000001
F-1.2949999999999999
tp710
sS'z'
F-1.2949999999999999
sbsg16
(ielbow.chemistry.xyzClass
xyzClass
p711
(dp712
g12
I1
sg13
F57.295779513082323
sS'y'
F-1.3817558677898876
sS'x'
F-0.47105322922856996
sg14
(F-0.47105322922856996
F-1.3817558677898876
F-2.0460666009789192
tp713
sS'z'
F-2.0460666009789192
sbsg14
(ielbow.chemistry.xyzClass
xyzClass
p714
(dp715
g12
I0
sg13
F57.295779513082323
sS'y'
F-0.95069269635834641
sS'x'
F-0.55126202043036399
sg14
(F-0.55126202043036399
F-0.95069269635834641
F-2.880147101385822
tp716
sS'z'
F-2.880147101385822
sbsg23
I1
sg25
S''
sg26
(lp717
sg28
S'1H10'
p718
sg30
S'CAM'
p719
sg68
g69
sg33
S'   25'
p720
sg36
I139907888288184
sg37
(lp721
g690
asg72
Nsg74
I25
sg75
Nsg76
g708
sg77
F1
sg78
I0
sg79
I24
sg80
g81
sg82
S'CAM:1:A:'
p722
sg84
S'CAM:1:A:???'
p723
sg86
(lp724
sg88
S'A'
sg89
S'H101'
p725
sg91
I24
sg92
S'H'
sg93
S'A'
sg94
S'   25'
p726
sg96
g725
sg97
I01
sg98
g419
sg99
g714
sg100
g725
sS'z'
F-2.880147101385822
sg101
g708
sg102
S''
sg103
I1
sg104
I25
sg105
S'H'
sg106
S' '
sg107
F1.0079
sS'y'
F-0.95069269635834641
sS'x'
F-0.55126202043036399
sg108
I0
sg109
I24
sba(ielbow.chemistry.AtomClass
AtomClass
p727
(dp728
g7
F20
sg8
I139907888288328
sg9
(ielbow.chemistry.xyzClass
xyzClass
p729
(dp730
g12
I1
sg13
F57.295779513082323
sS'y'
F0.128
sS'x'
F-2.5760000000000001
sg14
(F-2.5760000000000001
F0.128
F-0.77200000000000002
tp731
sS'z'
F-0.77200000000000002
sbsg16
(ielbow.chemistry.xyzClass
xyzClass
p732
(dp733
g12
I1
sg13
F57.295779513082323
sS'y'
F0.32529850811596051
sS'x'
F-0.81814535977455649
sg14
(F-0.81814535977455649
F0.32529850811596051
F-2.354181513723911
tp734
sS'z'
F-2.354181513723911
sbsg14
(ielbow.chemistry.xyzClass
xyzClass
p735
(dp736
g12
I0
sg13
F57.295779513082323
sS'y'
F0.75636167954750166
sS'x'
F-0.89835415097635063
sg14
(F-0.89835415097635063
F0.75636167954750166
F-3.1882620141308138
tp737
sS'z'
F-3.1882620141308138
sbsg23
I1
sg25
S''
sg26
(lp738
sg28
S'2H10'
p739
sg30
S'CAM'
p740
sg68
g69
sg33
S'   26'
p741
sg36
I139907888288328
sg37
(lp742
g690
asg72
Nsg74
I26
sg75
Nsg76
g729
sg77
F1
sg78
I0
sg79
I25
sg80
g81
sg82
S'CAM:1:A:'
p743
sg84
S'CAM:1:A:???'
p744
sg86
(lp745
sg88
S'A'
sg89
S'H102'
p746
sg91
I25
sg92
S'H'
sg93
S'A'
sg94
S'   26'
p747
sg96
g746
sg97
I01
sg98
g419
sg99
g735
sg100
g746
sS'z'
F-3.1882620141308138
sg101
g729
sg102
S''
sg103
I1
sg104
I26
sg105
S'H'
sg106
S' '
sg107
F1.0079
sS'y'
F0.75636167954750166
sS'x'
F-0.89835415097635063
sg108
I0
sg109
I25
sba(ielbow.chemistry.AtomClass
AtomClass
p748
(dp749
g7
F20
sg8
I139907882717840
sg9
(ielbow.chemistry.xyzClass
xyzClass
p750
(dp751
g12
I1
sg13
F57.295779513082323
sS'y'
F1.4330000000000001
sS'x'
F-2.3650000000000002
sg14
(F-2.3650000000000002
F1.4330000000000001
F0.41899999999999998
tp752
sS'z'
F0.41899999999999998
sbsg16
(ielbow.chemistry.xyzClass
xyzClass
p753
(dp754
g12
I1
sg13
F57.295779513082323
sS'y'
F-0.65658877724216791
sS'x'
F-1.9615102258092811
sg14
(F-1.9615102258092811
F-0.65658877724216791
F-1.4279135436325956
tp755
sS'z'
F-1.4279135436325956
sbsg14
(ielbow.chemistry.xyzClass
xyzClass
p756
(dp757
g12
I0
sg13
F57.295779513082323
sS'y'
F-0.22552560581062669
sS'x'
F-2.0417190170110753
sg14
(F-2.0417190170110753
F-0.22552560581062669
F-2.2619940440394983
tp758
sS'z'
F-2.2619940440394983
sbsg23
I1
sg25
S''
sg26
(lp759
sg28
S'3H10'
p760
sg30
S'CAM'
p761
sg68
g69
sg33
S'   27'
p762
sg36
I139907882717840
sg37
(lp763
g690
asg72
Nsg74
I27
sg75
Nsg76
g750
sg77
F1
sg78
I0
sg79
I26
sg80
g81
sg82
S'CAM:1:A:'
p764
sg84
S'CAM:1:A:???'
p765
sg86
(lp766
sg88
S'A'
sg89
S'H103'
p767
sg91
I26
sg92
S'H'
sg93
S'A'
sg94
S'   27'
p768
sg96
g767
sg97
I01
sg98
g419
sg99
g756
sg100
g767
sS'z'
F-2.2619940440394983
sg101
g750
sg102
S''
sg103
I1
sg104
I27
sg105
S'H'
sg106
S' '
sg107
F1.0079
sS'y'
F-0.22552560581062669
sS'x'
F-2.0417190170110753
sg108
I0
sg109
I26
sbasg72
g217
sg74
I11
sg75
Nsg76
g692
sg218
I0
sg77
F1
sg78
I0
sg79
I10
sg80
g221
sg82
S'CAM:1:A:'
p769
sg84
S'CAM:1:A:???'
p770
sg86
(lp771
sg224
(ielbow.chemistry.xyzClass
xyzClass
p772
(dp773
g12
I1
sg13
F57.295779513082323
sS'y'
F-1.0393970321754817
sS'x'
F-0.86460538099718764
sg14
(F-0.86460538099718764
F-1.0393970321754817
F-1.2227366559069783
tp774
sS'z'
F-1.2227366559069783
sbsg88
S'A'
sg89
S' C10'
p775
sg91
I10
sg92
S'C'
sg93
S'A'
sg94
S'   11'
p776
sg96
g775
sg97
I01
sg98
g468
sg99
g698
sg100
g775
sS'z'
F-2.4713060113190428
sg101
g692
sg102
S''
sg103
I1
sg104
I11
sg105
S'C'
sg106
S' '
sg107
F12.010999999999999
sS'y'
F-0.050174832012965187
sS'x'
F-0.99338748740647143
sg108
I0
sg297
g1
(g298
g3
(lp777
I6
a(lp778
I1
aI1
aI1
aa(lp779
a(lp780
a(lp781
a(lp782
a(lp783
atRp784
sg109
I10
sbasg72
g217
sg74
I1
sg75
Nsg76
g10
sg84
S'CAM:1:A:???'
p785
sg220
I01
sg78
I0
sg103
I1
sg79
I0
sg80
g462
sg82
S'CAM:1:A:'
p786
sg77
F1
sg86
(lp787
sg224
(ielbow.chemistry.xyzClass
xyzClass
p788
(dp789
g12
I1
sg13
F57.295779513082323
sS'y'
F-0.019536992617855471
sS'x'
F0.0079759438369659437
sg14
(F0.0079759438369659437
F-0.019536992617855471
F0.011279687947041952
tp790
sS'z'
F0.011279687947041952
sbsg88
S'A'
sg89
S' C1 '
p791
sg91
I0
sg68
g69
sg92
S'C'
sg93
S'A'
sg94
S'    1'
p792
sg96
g791
sg97
I01
sg98
g562
sg99
g20
sg100
g791
sS'z'
F-0.83408050040690274
sg101
g10
sg102
S'R'
sg231
I0
sg232
g239
sg295
I1
sg105
S'C'
sg106
S' '
sg107
F12.010999999999999
sg296
I1
sg269
g291
sS'y'
F0.43106317143154121
sS'x'
F-0.080208791201794083
sg108
I0
sg297
g1
(g298
g3
(ltRp793
sg104
I1
sg109
I0
sbag39
ag55
ag110
ag126
ag142
ag158
ag366
ag382
ag469
ag690
ag615
ag637
ag571
ag307
ag329
ag174
ag196
ag398
ag420
ag441
ag485
ag506
ag527
ag706
ag727
ag748
atRp794
(dp795
S'CIF_ligand_type'
p796
S'ligand'
p797
sS'original_ring_class'
p798
(lp799
g1
(celbow.chemistry.RingClass
RingClass
p800
g3
(lp801
(lp802
(ielbow.chemistry.RingClass
empty
p803
(dp804
g16
(ielbow.chemistry.xyzClass
xyzClass
p805
(dp806
g12
I0
sg13
F57.295779513082323
sS'y'
F-1.1011055363769386
sS'x'
F0.80000000000000004
sg14
(F0.80000000000000004
F-1.1011055363769386
F0
tp807
sS'z'
F0
sbsg74
I1
sg92
S'C'
sg14
(ielbow.chemistry.xyzClass
xyzClass
p808
(dp809
g12
I1
sg13
F57.295779513082323
sS'y'
F1.6653345369377348e-16
sS'x'
F1.6000000000000001
sg14
(F0
F0
I0
tp810
sS'z'
I0
sbsg9
(ielbow.chemistry.xyzClass
xyzClass
p811
(dp812
g12
I1
sg13
F57.295779513082323
sS'y'
F0.53500000000000003
sS'x'
F-0.52500000000000002
sg14
g15
sS'z'
F-0.253
sbsba(ielbow.chemistry.RingClass
empty
p813
(dp814
g16
(ielbow.chemistry.xyzClass
xyzClass
p815
(dp816
g12
I0
sg13
F57.295779513082323
sS'y'
F0.42058488969530705
sS'x'
F1.2944271909999159
sg14
(F1.2944271909999159
F0.42058488969530705
F0
tp817
sS'z'
F0
sbsg74
I8
sg92
S'C'
sg14
(ielbow.chemistry.xyzClass
xyzClass
p818
(dp819
g12
I1
sg13
F57.295779513082323
sS'y'
F1.5216904260722459
sS'x'
F2.0944271909999159
sg14
(F1.6000000000000001
F0
I0
tp820
sS'z'
I0
sbsg9
(ielbow.chemistry.xyzClass
xyzClass
p821
(dp822
g12
I1
sg13
F57.295779513082323
sS'y'
F-0.49099999999999999
sS'x'
F-0.308
sg14
g370
sS'z'
F0.91200000000000003
sbsba(ielbow.chemistry.RingClass
empty
p823
(dp824
g16
(ielbow.chemistry.xyzClass
xyzClass
p825
(dp826
g12
I0
sg13
F57.295779513082323
sS'y'
F1.3610412933632641
sS'x'
F-2.2204460492503131e-16
sg14
(F-2.2204460492503131e-16
F1.3610412933632641
F0
tp827
sS'z'
F0
sbsg74
I5
sg92
S'C'
sg14
(ielbow.chemistry.xyzClass
xyzClass
p828
(dp829
g12
I1
sg13
F57.295779513082323
sS'y'
F2.4621468297402029
sS'x'
F0.79999999999999982
sg14
(F1.6000000000000001
F0
I0
tp830
sS'z'
I0
sbsg9
(ielbow.chemistry.xyzClass
xyzClass
p831
(dp832
g12
I1
sg13
F57.295779513082323
sS'y'
F-0.60299999999999998
sS'x'
F1.2470000000000001
sg14
g130
sS'z'
F0.73799999999999999
sbsba(ielbow.chemistry.RingClass
empty
p833
(dp834
g16
(ielbow.chemistry.xyzClass
xyzClass
p835
(dp836
g12
I0
sg13
F57.295779513082323
sS'y'
F0.42058488969530683
sS'x'
F-1.2944271909999161
sg14
(F-1.2944271909999161
F0.42058488969530683
F0
tp837
sS'z'
F0
sbsg74
I4
sg92
S'C'
sg14
(ielbow.chemistry.xyzClass
xyzClass
p838
(dp839
g12
I1
sg13
F57.295779513082323
sS'y'
F1.5216904260722457
sS'x'
F-0.49442719099991594
sg14
(F1.6000000000000001
F0
I0
tp840
sS'z'
I0
sbsg9
(ielbow.chemistry.xyzClass
xyzClass
p841
(dp842
g12
I1
sg13
F57.295779513082323
sS'y'
F-0.94299999999999995
sS'x'
F1.3320000000000001
sg14
g114
sS'z'
F-0.78100000000000003
sbsba(ielbow.chemistry.RingClass
empty
p843
(dp844
g16
(ielbow.chemistry.xyzClass
xyzClass
p845
(dp846
g12
I0
sg13
F57.295779513082323
sS'y'
F-1.1011055363769389
sS'x'
F-0.80000000000000004
sg14
(F-0.80000000000000004
F-1.1011055363769389
F0
tp847
sS'z'
F0
sbsg74
I2
sg92
S'C'
sg14
(ielbow.chemistry.xyzClass
xyzClass
p848
(dp849
g12
I1
sg13
F57.295779513082323
sS'y'
F0
sS'x'
F0
sg14
(F1.6000000000000001
F0
I0
tp850
sS'z'
I0
sbsg9
(ielbow.chemistry.xyzClass
xyzClass
p851
(dp852
g12
I1
sg13
F57.295779513082323
sS'y'
F-0.17199999999999999
sS'x'
F0.17100000000000001
sg14
g43
sS'z'
F-1.4219999999999999
sbsbaa(lp853
(ielbow.chemistry.RingClass
empty
p854
(dp855
g16
(ielbow.chemistry.xyzClass
xyzClass
p856
(dp857
g12
I0
sg13
F57.295779513082323
sS'y'
F-1.1011055363769386
sS'x'
F0.80000000000000004
sg14
(F0.80000000000000004
F-1.1011055363769386
F0
tp858
sS'z'
F0
sbsg74
I1
sg92
S'C'
sg14
(ielbow.chemistry.xyzClass
xyzClass
p859
(dp860
g12
I1
sg13
F57.295779513082323
sS'y'
F1.6653345369377348e-16
sS'x'
F1.6000000000000001
sg14
(F0
F0
I1
tp861
sS'z'
I1
sbsg9
g811
sba(ielbow.chemistry.RingClass
empty
p862
(dp863
g16
(ielbow.chemistry.xyzClass
xyzClass
p864
(dp865
g12
I0
sg13
F57.295779513082323
sS'y'
F0.42058488969530705
sS'x'
F1.2944271909999159
sg14
(F1.2944271909999159
F0.42058488969530705
F0
tp866
sS'z'
F0
sbsg74
I8
sg92
S'C'
sg14
(ielbow.chemistry.xyzClass
xyzClass
p867
(dp868
g12
I1
sg13
F57.295779513082323
sS'y'
F1.5216904260722459
sS'x'
F2.0944271909999159
sg14
(F1.6000000000000001
F0
I1
tp869
sS'z'
I1
sbsg9
g821
sba(ielbow.chemistry.RingClass
empty
p870
(dp871
g16
(ielbow.chemistry.xyzClass
xyzClass
p872
(dp873
g12
I0
sg13
F57.295779513082323
sS'y'
F1.3610412933632641
sS'x'
F-2.2204460492503131e-16
sg14
(F-2.2204460492503131e-16
F1.3610412933632641
F0
tp874
sS'z'
F0
sbsg74
I5
sg92
S'C'
sg14
(ielbow.chemistry.xyzClass
xyzClass
p875
(dp876
g12
I1
sg13
F57.295779513082323
sS'y'
F2.4621468297402029
sS'x'
F0.79999999999999982
sg14
(F1.6000000000000001
F0
I1
tp877
sS'z'
I1
sbsg9
g831
sba(ielbow.chemistry.RingClass
empty
p878
(dp879
g16
(ielbow.chemistry.xyzClass
xyzClass
p880
(dp881
g12
I0
sg13
F57.295779513082323
sS'y'
F0.42058488969530683
sS'x'
F-1.2944271909999161
sg14
(F-1.2944271909999161
F0.42058488969530683
F0
tp882
sS'z'
F0
sbsg74
I6
sg92
S'C'
sg14
(ielbow.chemistry.xyzClass
xyzClass
p883
(dp884
g12
I1
sg13
F57.295779513082323
sS'y'
F1.5216904260722457
sS'x'
F-0.49442719099991594
sg14
(F1.6000000000000001
F0
I1
tp885
sS'z'
I1
sbsg9
(ielbow.chemistry.xyzClass
xyzClass
p886
(dp887
g12
I1
sg13
F57.295779513082323
sS'y'
F0.89700000000000002
sS'x'
F1.657
sg14
g146
sS'z'
F0.84099999999999997
sbsba(ielbow.chemistry.RingClass
empty
p888
(dp889
g16
(ielbow.chemistry.xyzClass
xyzClass
p890
(dp891
g12
I0
sg13
F57.295779513082323
sS'y'
F-1.1011055363769389
sS'x'
F-0.80000000000000004
sg14
(F-0.80000000000000004
F-1.1011055363769389
F0
tp892
sS'z'
F0
sbsg74
I7
sg92
S'C'
sg14
(ielbow.chemistry.xyzClass
xyzClass
p893
(dp894
g12
I1
sg13
F57.295779513082323
sS'y'
F0
sS'x'
F0
sg14
(F1.6000000000000001
F0
I1
tp895
sS'z'
I1
sbsg9
(ielbow.chemistry.xyzClass
xyzClass
p896
(dp897
g12
I1
sg13
F57.295779513082323
sS'y'
F1.663
sS'x'
F0.48399999999999999
sg14
g162
sS'z'
F0.186
sbsbaa(lp898
(ielbow.chemistry.RingClass
empty
p899
(dp900
g16
(ielbow.chemistry.xyzClass
xyzClass
p901
(dp902
g12
I0
sg13
F57.295779513082323
sS'y'
F-1.3856406460551023
sS'x'
F0.80000000000000082
sg14
g238
sS'z'
F0
sbsg74
I1
sg92
S'C'
sg14
(ielbow.chemistry.xyzClass
xyzClass
p903
(dp904
g12
I1
sg13
F57.295779513082323
sS'y'
F0
sS'x'
F1.600000000000001
sg14
g294
sS'z'
I2
sbsg9
g811
sba(ielbow.chemistry.RingClass
empty
p905
(dp906
g16
(ielbow.chemistry.xyzClass
xyzClass
p907
(dp908
g12
I0
sg13
F57.295779513082323
sS'y'
F4.4408920985006262e-16
sS'x'
F1.6000000000000005
sg14
g268
sS'z'
F0
sbsg74
I7
sg92
S'C'
sg14
(ielbow.chemistry.xyzClass
xyzClass
p909
(dp910
g12
I1
sg13
F57.295779513082323
sS'y'
F1.3856406460551027
sS'x'
F2.4000000000000008
sg14
g273
sS'z'
I2
sbsg9
g896
sba(ielbow.chemistry.RingClass
empty
p911
(dp912
g16
(ielbow.chemistry.xyzClass
xyzClass
p913
(dp914
g12
I0
sg13
F57.295779513082323
sS'y'
F1.3856406460551023
sS'x'
F0.79999999999999971
sg14
g262
sS'z'
F0
sbsg74
I6
sg92
S'C'
sg14
(ielbow.chemistry.xyzClass
xyzClass
p915
(dp916
g12
I1
sg13
F57.295779513082323
sS'y'
F2.7712812921102046
sS'x'
F1.5999999999999999
sg14
g277
sS'z'
I2
sbsg9
g886
sba(ielbow.chemistry.RingClass
empty
p917
(dp918
g16
(ielbow.chemistry.xyzClass
xyzClass
p919
(dp920
g12
I0
sg13
F57.295779513082323
sS'y'
F1.3856406460551018
sS'x'
F-0.8000000000000006
sg14
g256
sS'z'
F0
sbsg74
I5
sg92
S'C'
sg14
(ielbow.chemistry.xyzClass
xyzClass
p921
(dp922
g12
I1
sg13
F57.295779513082323
sS'y'
F2.7712812921102041
sS'x'
F-4.4408920985006262e-16
sg14
g281
sS'z'
I2
sbsg9
g831
sba(ielbow.chemistry.RingClass
empty
p923
(dp924
g16
(ielbow.chemistry.xyzClass
xyzClass
p925
(dp926
g12
I0
sg13
F57.295779513082323
sS'y'
F-4.4408920985006262e-16
sS'x'
F-1.6000000000000005
sg14
g250
sS'z'
F0
sbsg74
I4
sg92
S'C'
sg14
(ielbow.chemistry.xyzClass
xyzClass
p927
(dp928
g12
I1
sg13
F57.295779513082323
sS'y'
F1.3856406460551018
sS'x'
F-0.80000000000000027
sg14
g285
sS'z'
I2
sbsg9
g841
sba(ielbow.chemistry.RingClass
empty
p929
(dp930
g16
(ielbow.chemistry.xyzClass
xyzClass
p931
(dp932
g12
I0
sg13
F57.295779513082323
sS'y'
F-1.3856406460551023
sS'x'
F-0.80000000000000016
sg14
g244
sS'z'
F0
sbsg74
I2
sg92
S'C'
sg14
(ielbow.chemistry.xyzClass
xyzClass
p933
(dp934
g12
I1
sg13
F57.295779513082323
sS'y'
F0
sS'x'
F0
sg14
g289
sS'z'
I2
sbsg9
g851
sbaatRp935
(dp936
S'use_cctbx'
p937
I01
sS'RestraintWeights'
p938
(dp939
S'LoopClass'
p940
(dp941
S'angle'
p942
F0.25
sS'bond'
p943
I50
ssS'GetCCTBXRestraints'
p944
(dp945
g942
F1
sg943
F100
ssS'ZMatrixClass'
p946
(dp947
g942
I10
sg943
F100
ssS'AdjustRestraintClass'
p948
(dp949
S'ring_planar'
p950
F0.10000000000000001
sS'aromatic_bond'
p951
F100
sg942
F1.5
sg102
F50
sS'loose_angle'
p952
F0.25
sS'non_ring_planar'
p953
F0.20000000000000001
ssS'RingClass'
p954
(dp955
S'flatness'
p956
F10
sg942
F2
sS'chair_boat'
p957
F1
sS'non_aromatic'
p958
F10
sg943
F200
ssS'ChiralClass'
p959
(dp960
g943
F100
sssS'allow_boat_conformation'
p961
I00
sS'ignore_list'
p962
(lp963
sS'rejected'
p964
(lp965
sS'ignore'
p966
(lp967
sS'edges'
p968
(dp969
sS'coordinates'
p970
(lp971
F0
aF0
aF0
aF0
aF0
aF0
aF0
aF0
aF0
aF0
aF0
aF0
aF0
aF0
aF0
aF0
aF0
aF0
asS'UseRestraintWeights'
p972
I01
sS'UseRestraintValues'
p973
I01
sS'min_iter_rings'
p974
I7
sS'RestraintValues'
p975
(dp976
g954
(dp977
g942
(dp978
I3
F60
sI4
F90
sI5
F106
sI6
F113
ssS'dihedral'
p979
(dp980
I5
(lp981
F25
aI10
asI6
(lp982
F55
aI1
assssbasS'energy'
p983
F6911.8988302798471
sS'chiral_restraint'
p984
(dp985
I1
g1
(celbow.cctbx_api.RestraintClass
RestraintClass
p986
c__builtin__
dict
p987
(dp988
(I1
I2
tp989
(lp990
F1.527126
aF100
asI1
(F1.5316780236115246
F0.21956445620010884
F2.6529644506682719
tp991
sI2
(F0.068322208304579579
F-0.21956444452711341
F2.6529646217572203
tp992
s(I8
I1
I7
tp993
(lp994
F109.47122063449069
aF1
as(I11
I1
I8
tp995
(lp996
F109.47122063449069
aF1
asI7
(F2.2633910451506285
F-0.21944760388553294
F1.385640523494293
tp997
s(I8
I1
tp998
(lp999
F1.527126
aF100
asI11
(F-1.3975706951597047
F-0.48488607683654605
F-1.487001311224093
tp1000
s(I7
I1
I2
tp1001
(lp1002
F109.47122063449069
aF1
as(I8
I1
I2
tp1003
(lp1004
F109.47122063449069
aF1
asI8
(F1.9173804192832149
F-0.3822146143913453
F3.3554526671025795
tp1005
s(I11
I1
I7
tp1006
(lp1007
F109.47122063449069
aF1
as(I11
I1
I2
tp1008
(lp1009
F109.47122063449069
aF1
as(I1
I7
tp1010
(lp1011
F1.527126
aF100
as(I1
I11
tp1012
(lp1013
F1.527126
aF100
astRp1014
(dp1015
S'link'
p1016
(dp1017
I8
I3
sI1
I0
sI2
I1
sI11
I4
sI7
I2
ssS'hydrogens'
p1018
(lp1019
sS'chiral_weights'
p1020
(lp1021
F50
asS'restraint_type'
p1022
(dp1023
sS'type'
p1024
NsS'chirals'
p1025
(lp1026
(lp1027
(lp1028
(lp1029
g5
ag158
ag39
ag690
aa(lp1030
F2.7416130034035215
aI01
aF1
aaaasS'overwrite'
p1031
I00
sbsI2
g1
(g986
g987
(dp1032
(I8
I5
I6
tp1033
(lp1034
F109.47122063449069
aF1
as(I5
I4
tp1035
(lp1036
F1.527126
aF100
asI4
(F2.1971403237292377
F0
F1.4843932881068085
tp1037
sI5
(F1.5790250627418212
F-1.1700881435589303
F2.3837415301339302
tp1038
s(I14
I5
tp1039
(lp1040
F1.0833090000000001
aF100
as(I5
I6
tp1041
(lp1042
F1.527126
aF100
as(I14
I5
I6
tp1043
(lp1044
F109.47122063449069
aF1
asI14
(F1.7629999999999999
F-1.288
F1.411
tp1045
s(I14
I5
I4
tp1046
(lp1047
F109.47122063449069
aF1
asI8
(F-0.53774037383613138
F1.3372946466708093
F0.5045712419551599
tp1048
s(I8
I5
I4
tp1049
(lp1050
F109.47122063449069
aF1
as(I6
I5
I4
tp1051
(lp1052
F109.47122063449069
aF1
as(I14
I5
I8
tp1053
(lp1054
F109.47122063449069
aF1
asI6
(F-0.020612237110542164
F-1.1415894798338491
F2.4024052673514902
tp1055
s(I5
I8
tp1056
(lp1057
F1.527126
aF100
astRp1058
(dp1059
g1016
(dp1060
I8
I3
sI6
I2
sI4
I0
sI5
I1
sI14
I4
ssg1018
(lp1061
sg1020
(lp1062
F50
asg1022
(dp1063
sg1024
Nsg1025
(lp1064
(lp1065
(lp1066
(lp1067
g126
ag110
ag142
ag366
aa(lp1068
F-2.7416130034035215
aI01
aF1
aaaasg1031
I00
sbssS'ligand_type'
p1069
S'NON-POLYMER'
p1070
sS'OutputHeaderData'
p1071
(dp1072
S'qm_method'
p1073
S'AM1'
p1074
sS'random_seed'
p1075
S'3628800'
p1076
sS'qm_basis'
p1077
g1074
sS'file'
p1078
S'/home/liuyoujia/phenix-1.19rc3-4024/modules/chem_data/chemical_components/c/data_CAM.cif'
p1079
ssS'OriginalFormat'
p1080
g1
(celbow.formats.FormatClass
FormatClass
p1081
g987
(dp1082
S'atom_names'
p1083
I01
sS'smiles'
p1084
I00
sS'bond_connections_optional'
p1085
I00
sS'bond_orders'
p1086
I01
sS'bond_connections'
p1087
I01
sS'xyz_coordinates'
p1088
I00
stRp1089
(dp1090
S'format'
p1091
S'CHEMICAL COMPONENTS'
p1092
sbsS'WriteCIF2String_defaults'
p1093
(lp1094
I00
aI01
aS'CAM'
p1095
aS''
aI00
aI01
aI00
aS'retain'
p1096
aI00
aI01
aI01
a(I4
I3
I2
tp1097
aI00
aI00
aNaI01
a(lp1098
a(lp1099
a(lp1100
a(lp1101
aI00
aI00
asS'chiral_class'
p1102
(dp1103
I1
g1
(celbow.chemistry.ChiralClass
ChiralClass
p1104
g3
(lp1105
g366
ag5
ag158
ag39
ag690
atRp1106
(dp1107
S'rs_priority'
p1108
(lp1109
g690
ag158
ag366
ag39
asS'id_tag'
p1110
I139907882763376
sS'equil'
p1111
F2.7416130034035215
sS'parent'
p1112
g794
sS'bonds'
p1113
g1
(celbow.chemistry.InternalCoordinateListClass
InternalCoordinateListClass
p1114
g3
(lp1115
g1
(celbow.chemistry.BondClass
BondClass
p1116
g3
(lp1117
g5
ag39
atRp1118
(dp1119
g1111
F1.527126
sS'max_atoms'
p1120
I2
sg92
S'-'
sS'symbols'
p1121
(lp1122
sS'restrain'
p1123
I00
sS'input_order'
p1124
I1
sS'order'
p1125
I1
sS'neutron'
p1126
F1.3849559295504725
sbag1
(g1116
g3
(lp1127
g5
ag158
atRp1128
(dp1129
g1111
F1.527126
sg1120
I2
sg92
S'-'
sg1121
g1122
sg1123
I00
sg1124
I1
sg1125
I1
sg1126
F1.4324407178965952
sbag1
(g1116
g3
(lp1130
g5
ag366
atRp1131
(dp1132
g1111
F1.527126
sg1120
I2
sg92
S'-'
sg1121
g1122
sg1123
I00
sg1124
I1
sg1125
I1
sg1126
F1.6974431163024117
sbag1
(g1116
g3
(lp1133
g5
ag690
atRp1134
(dp1135
g1111
F1.527126
sg1120
I2
sg92
S'-'
sg1121
g1122
sg1123
I00
sg1124
I1
sg1125
I1
sg1126
F1.9354567214853571
sbag1
(g1116
g3
(lp1136
g39
ag55
atRp1137
(dp1138
g1111
F1.184607
sg1120
I2
sg92
S'='
sg1121
g1122
sg1123
I00
sg1124
I2
sg1125
I2
sg1126
F1.1841753494143599
sbag1
(g1116
g3
(lp1139
g39
ag110
atRp1140
(dp1141
g1111
F1.527126
sg1120
I2
sg92
S'-'
sg1121
g1122
sg1123
I00
sg1124
I1
sg1125
I1
sg1126
F1.2785905956510335
sbag1
(g1116
g3
(lp1142
g110
ag126
atRp1143
(dp1144
g1111
F1.527126
sg1120
I2
sg92
S'-'
sg1121
g1122
sg1123
I00
sg1124
I1
sg1125
I1
sg1126
F1.4304400224858065
sbag1
(g1116
g3
(lp1145
g110
ag615
atRp1146
(dp1147
g1111
F0.96999999999999997
sg1120
I2
sg92
S'-'
sg1121
g1122
sg1123
I00
sg1124
I1
sg1125
I1
sg1126
F1.0900000000000001
sbag1
(g1116
g3
(lp1148
g110
ag637
atRp1149
(dp1150
g1111
F0.96999999999999997
sg1120
I2
sg92
S'-'
sg1121
g1122
sg1123
I00
sg1124
I1
sg1125
I1
sg1126
F1.0900000000000001
sbag1
(g1116
g3
(lp1151
g126
ag142
atRp1152
(dp1153
g1111
F1.527126
sg1120
I2
sg92
S'-'
sg1121
g1122
sg1123
I00
sg1124
I1
sg1125
I1
sg1126
F1.431420311290142
sbag1
(g1116
g3
(lp1154
g126
ag366
atRp1155
(dp1156
g1111
F1.527126
sg1120
I2
sg92
S'-'
sg1121
g1122
sg1123
I00
sg1124
I1
sg1125
I1
sg1126
F1.7597439746572736
sbag1
(g1116
g3
(lp1157
g126
ag571
atRp1158
(dp1159
g1111
F0.96999999999999997
sg1120
I2
sg92
S'-'
sg1121
g1122
sg1123
I00
sg1124
I1
sg1125
I1
sg1126
F1.0900000000000001
sbag1
(g1116
g3
(lp1160
g142
ag158
atRp1161
(dp1162
g1111
F1.527126
sg1120
I2
sg92
S'-'
sg1121
g1122
sg1123
I00
sg1124
I1
sg1125
I1
sg1126
F1.4147536494274224
sbag1
(g1116
g3
(lp1163
g142
ag307
atRp1164
(dp1165
g1111
F0.96999999999999997
sg1120
I2
sg92
S'-'
sg1121
g1122
sg1123
I00
sg1124
I1
sg1125
I1
sg1126
F1.0900000000000001
sbag1
(g1116
g3
(lp1166
g142
ag329
atRp1167
(dp1168
g1111
F0.96999999999999997
sg1120
I2
sg92
S'-'
sg1121
g1122
sg1123
I00
sg1124
I1
sg1125
I1
sg1126
F1.0900000000000001
sbag1
(g1116
g3
(lp1169
g158
ag174
atRp1170
(dp1171
g1111
F0.96999999999999997
sg1120
I2
sg92
S'-'
sg1121
g1122
sg1123
I00
sg1124
I1
sg1125
I1
sg1126
F1.0900000000000001
sbag1
(g1116
g3
(lp1172
g158
ag196
atRp1173
(dp1174
g1111
F0.96999999999999997
sg1120
I2
sg92
S'-'
sg1121
g1122
sg1123
I00
sg1124
I1
sg1125
I1
sg1126
F1.0900000000000001
sbag1
(g1116
g3
(lp1175
g366
ag382
atRp1176
(dp1177
g1111
F1.527126
sg1120
I2
sg92
S'-'
sg1121
g1122
sg1123
I00
sg1124
I1
sg1125
I1
sg1126
F1.5277120428516784
sbag1
(g1116
g3
(lp1178
g366
ag469
atRp1179
(dp1180
g1111
F1.527126
sg1120
I2
sg92
S'-'
sg1121
g1122
sg1123
I00
sg1124
I1
sg1125
I1
sg1126
F1.528822824500786
sbag1
(g1116
g3
(lp1181
g382
ag398
atRp1182
(dp1183
g1111
F0.96999999999999997
sg1120
I2
sg92
S'-'
sg1121
g1122
sg1123
I00
sg1124
I1
sg1125
I1
sg1126
F1.0900000000000001
sbag1
(g1116
g3
(lp1184
g382
ag420
atRp1185
(dp1186
g1111
F0.96999999999999997
sg1120
I2
sg92
S'-'
sg1121
g1122
sg1123
I00
sg1124
I1
sg1125
I1
sg1126
F1.0900000000000001
sbag1
(g1116
g3
(lp1187
g382
ag441
atRp1188
(dp1189
g1111
F0.96999999999999997
sg1120
I2
sg92
S'-'
sg1121
g1122
sg1123
I00
sg1124
I1
sg1125
I1
sg1126
F1.0900000000000001
sbag1
(g1116
g3
(lp1190
g469
ag485
atRp1191
(dp1192
g1111
F0.96999999999999997
sg1120
I2
sg92
S'-'
sg1121
g1122
sg1123
I00
sg1124
I1
sg1125
I1
sg1126
F1.0900000000000001
sbag1
(g1116
g3
(lp1193
g469
ag506
atRp1194
(dp1195
g1111
F0.96999999999999997
sg1120
I2
sg92
S'-'
sg1121
g1122
sg1123
I00
sg1124
I1
sg1125
I1
sg1126
F1.0900000000000001
sbag1
(g1116
g3
(lp1196
g469
ag527
atRp1197
(dp1198
g1111
F0.96999999999999997
sg1120
I2
sg92
S'-'
sg1121
g1122
sg1123
I00
sg1124
I1
sg1125
I1
sg1126
F1.0900000000000001
sbag1
(g1116
g3
(lp1199
g690
ag706
atRp1200
(dp1201
g1111
F0.96999999999999997
sg1120
I2
sg92
S'-'
sg1121
g1122
sg1123
I00
sg1124
I1
sg1125
I1
sg1126
F1.0900000000000001
sbag1
(g1116
g3
(lp1202
g690
ag727
atRp1203
(dp1204
g1111
F0.96999999999999997
sg1120
I2
sg92
S'-'
sg1121
g1122
sg1123
I00
sg1124
I1
sg1125
I1
sg1126
F1.0900000000000001
sbag1
(g1116
g3
(lp1205
g690
ag748
atRp1206
(dp1207
g1111
F0.96999999999999997
sg1120
I2
sg92
S'-'
sg1121
g1122
sg1123
I00
sg1124
I1
sg1125
I1
sg1126
F1.0900000000000001
sbatRp1208
sS'skip'
p1209
(lp1210
I1
asS'get_bond_by_atoms_lookup'
p1211
(dp1212
S' H62: C6 '
p1213
g1173
sS' C3 : C2 '
p1214
g1140
sS' C3 : H31'
p1215
g1146
sS' C3 : H32'
p1216
g1149
sS' C10:H101'
p1217
g1200
sS' C6 : C5 '
p1218
g1161
sS' C3 : C4 '
p1219
g1143
sS' C6 : H62'
p1220
g1173
sS' C5 : C6 '
p1221
g1161
sS' C5 : H51'
p1222
g1164
sS' C5 : H52'
p1223
g1167
sS' H4 : C4 '
p1224
g1158
sS' C6 : H61'
p1225
g1170
sS' C7 : C8 '
p1226
g1176
sS' C1 : C10'
p1227
g1134
sS' C4 : C3 '
p1228
g1143
sS' C4 : C7 '
p1229
g1155
sS' C4 : H4 '
p1230
g1158
sS' C10:H102'
p1231
g1203
sS' C8 : C7 '
p1232
g1176
sS' C9 : H91'
p1233
g1191
sS' C9 : H92'
p1234
g1194
sS' C10:H103'
p1235
g1206
sS' H52: C5 '
p1236
g1167
sS' C7 : C4 '
p1237
g1155
sS' H81: C8 '
p1238
g1182
sS' H92: C9 '
p1239
g1194
sS' H51: C5 '
p1240
g1164
sS' C1 : C6 '
p1241
g1128
sS' C2 : O  '
p1242
g1137
sS' C1 : C2 '
p1243
g1118
sS' C9 : H93'
p1244
g1197
sS' C4 : C5 '
p1245
g1152
sS' C8 : H82'
p1246
g1185
sS' C8 : H83'
p1247
g1188
sS' C8 : H81'
p1248
g1182
sS' C7 : C9 '
p1249
g1179
sS' H31: C3 '
p1250
g1146
sS' C2 : C3 '
p1251
g1140
sS' C5 : C4 '
p1252
g1152
sS' H61: C6 '
p1253
g1170
sS'H103: C10'
p1254
g1206
sS'H102: C10'
p1255
g1203
sS' O  : C2 '
p1256
g1137
sS' H91: C9 '
p1257
g1191
sS' H82: C8 '
p1258
g1185
sS'H101: C10'
p1259
g1200
sS' H32: C3 '
p1260
g1149
sS' H83: C8 '
p1261
g1188
sS' C9 : C7 '
p1262
g1179
sS' H93: C9 '
p1263
g1197
ssS'axis_atom'
p1264
g366
sS'angles'
p1265
g1
(g1114
g3
(lp1266
g1
(celbow.chemistry.AngleClass
AngleClass
p1267
g3
(lp1268
g55
ag39
ag5
atRp1269
(dp1270
g1121
(lp1271
S'='
aS'-'
asg1123
I01
sg1111
F120
sbag1
(g1267
g3
(lp1272
g110
ag39
ag5
atRp1273
(dp1274
g1121
(lp1275
S'-'
aS'-'
asS'must_be'
p1276
F120
sg1123
I01
sg1111
F120
sbag1
(g1267
g3
(lp1277
g142
ag158
ag5
atRp1278
(dp1279
g1121
(lp1280
S'-'
aS'-'
asg1123
I01
sbag1
(g1267
g3
(lp1281
g174
ag158
ag5
atRp1282
(dp1283
g1121
(lp1284
S'-'
aS'-'
asg1123
I01
sg1111
F109.47122063449069
sbag1
(g1267
g3
(lp1285
g196
ag158
ag5
atRp1286
(dp1287
g1121
(lp1288
S'-'
aS'-'
asg1123
I01
sg1111
F109.47122063449069
sbag1
(g1267
g3
(lp1289
g126
ag366
ag5
atRp1290
(dp1291
g1121
(lp1292
S'-'
aS'-'
asg1123
I01
sg1111
F109.47122063449069
sbag1
(g1267
g3
(lp1293
g382
ag366
ag5
atRp1294
(dp1295
g1121
(lp1296
S'-'
aS'-'
asg1123
I01
sg1111
F109.47122063449069
sbag1
(g1267
g3
(lp1297
g469
ag366
ag5
atRp1298
(dp1299
g1121
(lp1300
S'-'
aS'-'
asg1123
I01
sg1111
F109.47122063449069
sbag1
(g1267
g3
(lp1301
g706
ag690
ag5
atRp1302
(dp1303
g1121
(lp1304
S'-'
aS'-'
asg1123
I01
sg1111
F109.47122063449069
sbag1
(g1267
g3
(lp1305
g727
ag690
ag5
atRp1306
(dp1307
g1121
(lp1308
S'-'
aS'-'
asg1123
I01
sg1111
F109.47122063449069
sbag1
(g1267
g3
(lp1309
g748
ag690
ag5
atRp1310
(dp1311
g1121
(lp1312
S'-'
aS'-'
asg1123
I01
sg1111
F109.47122063449069
sbag1
(g1267
g3
(lp1313
g158
ag5
ag39
atRp1314
(dp1315
g1121
(lp1316
S'-'
aS'-'
asg1123
I01
sbag1
(g1267
g3
(lp1317
g366
ag5
ag39
atRp1318
(dp1319
g1121
(lp1320
S'-'
aS'-'
asg1123
I01
sbag1
(g1267
g3
(lp1321
g690
ag5
ag39
atRp1322
(dp1323
g1121
(lp1324
S'-'
aS'-'
asg1123
I01
sg1111
F109.47122063449069
sbag1
(g1267
g3
(lp1325
g126
ag110
ag39
atRp1326
(dp1327
g1121
(lp1328
S'-'
aS'-'
asg1123
I01
sbag1
(g1267
g3
(lp1329
g615
ag110
ag39
atRp1330
(dp1331
g1121
(lp1332
S'-'
aS'-'
asg1123
I01
sg1111
F109.47122063449069
sbag1
(g1267
g3
(lp1333
g637
ag110
ag39
atRp1334
(dp1335
g1121
(lp1336
S'-'
aS'-'
asg1123
I01
sg1111
F109.47122063449069
sbag1
(g1267
g3
(lp1337
g110
ag39
ag55
atRp1338
(dp1339
g1121
(lp1340
S'-'
aS'='
asg1123
I01
sg1111
F120
sbag1
(g1267
g3
(lp1341
g142
ag126
ag110
atRp1342
(dp1343
g1121
(lp1344
S'-'
aS'-'
asg1123
I01
sbag1
(g1267
g3
(lp1345
g366
ag126
ag110
atRp1346
(dp1347
g1121
(lp1348
S'-'
aS'-'
asg1123
I01
sbag1
(g1267
g3
(lp1349
g571
ag126
ag110
atRp1350
(dp1351
g1121
(lp1352
S'-'
aS'-'
asg1123
I01
sg1111
F109.47122063449069
sbag1
(g1267
g3
(lp1353
g615
ag110
ag126
atRp1354
(dp1355
g1121
(lp1356
S'-'
aS'-'
asg1123
I01
sg1111
F109.47122063449069
sbag1
(g1267
g3
(lp1357
g637
ag110
ag126
atRp1358
(dp1359
g1121
(lp1360
S'-'
aS'-'
asg1123
I01
sg1111
F109.47122063449069
sbag1
(g1267
g3
(lp1361
g158
ag142
ag126
atRp1362
(dp1363
g1121
(lp1364
S'-'
aS'-'
asg1123
I01
sbag1
(g1267
g3
(lp1365
g307
ag142
ag126
atRp1366
(dp1367
g1121
(lp1368
S'-'
aS'-'
asg1123
I01
sg1111
F109.47122063449069
sbag1
(g1267
g3
(lp1369
g329
ag142
ag126
atRp1370
(dp1371
g1121
(lp1372
S'-'
aS'-'
asg1123
I01
sg1111
F109.47122063449069
sbag1
(g1267
g3
(lp1373
g382
ag366
ag126
atRp1374
(dp1375
g1121
(lp1376
S'-'
aS'-'
asg1123
I01
sg1111
F109.47122063449069
sbag1
(g1267
g3
(lp1377
g469
ag366
ag126
atRp1378
(dp1379
g1121
(lp1380
S'-'
aS'-'
asg1123
I01
sg1111
F109.47122063449069
sbag1
(g1267
g3
(lp1381
g366
ag126
ag142
atRp1382
(dp1383
g1121
(lp1384
S'-'
aS'-'
asg1123
I01
sbag1
(g1267
g3
(lp1385
g571
ag126
ag142
atRp1386
(dp1387
g1121
(lp1388
S'-'
aS'-'
asg1123
I01
sg1111
F109.47122063449069
sbag1
(g1267
g3
(lp1389
g174
ag158
ag142
atRp1390
(dp1391
g1121
(lp1392
S'-'
aS'-'
asg1123
I01
sg1111
F109.47122063449069
sbag1
(g1267
g3
(lp1393
g196
ag158
ag142
atRp1394
(dp1395
g1121
(lp1396
S'-'
aS'-'
asg1123
I01
sg1111
F109.47122063449069
sbag1
(g1267
g3
(lp1397
g366
ag5
ag158
atRp1398
(dp1399
g1121
(lp1400
S'-'
aS'-'
asg1123
I01
sbag1
(g1267
g3
(lp1401
g690
ag5
ag158
atRp1402
(dp1403
g1121
(lp1404
S'-'
aS'-'
asg1123
I01
sg1111
F109.47122063449069
sbag1
(g1267
g3
(lp1405
g307
ag142
ag158
atRp1406
(dp1407
g1121
(lp1408
S'-'
aS'-'
asg1123
I01
sg1111
F109.47122063449069
sbag1
(g1267
g3
(lp1409
g329
ag142
ag158
atRp1410
(dp1411
g1121
(lp1412
S'-'
aS'-'
asg1123
I01
sg1111
F109.47122063449069
sbag1
(g1267
g3
(lp1413
g690
ag5
ag366
atRp1414
(dp1415
g1121
(lp1416
S'-'
aS'-'
asg1123
I01
sg1111
F109.47122063449069
sbag1
(g1267
g3
(lp1417
g571
ag126
ag366
atRp1418
(dp1419
g1121
(lp1420
S'-'
aS'-'
asg1123
I01
sg1111
F109.47122063449069
sbag1
(g1267
g3
(lp1421
g398
ag382
ag366
atRp1422
(dp1423
g1121
(lp1424
S'-'
aS'-'
asg1123
I01
sg1111
F109.47122063449069
sbag1
(g1267
g3
(lp1425
g420
ag382
ag366
atRp1426
(dp1427
g1121
(lp1428
S'-'
aS'-'
asg1123
I01
sg1111
F109.47122063449069
sbag1
(g1267
g3
(lp1429
g441
ag382
ag366
atRp1430
(dp1431
g1121
(lp1432
S'-'
aS'-'
asg1123
I01
sg1111
F109.47122063449069
sbag1
(g1267
g3
(lp1433
g485
ag469
ag366
atRp1434
(dp1435
g1121
(lp1436
S'-'
aS'-'
asg1123
I01
sg1111
F109.47122063449069
sbag1
(g1267
g3
(lp1437
g506
ag469
ag366
atRp1438
(dp1439
g1121
(lp1440
S'-'
aS'-'
asg1123
I01
sg1111
F109.47122063449069
sbag1
(g1267
g3
(lp1441
g527
ag469
ag366
atRp1442
(dp1443
g1121
(lp1444
S'-'
aS'-'
asg1123
I01
sg1111
F109.47122063449069
sbag1
(g1267
g3
(lp1445
g469
ag366
ag382
atRp1446
(dp1447
g1121
(lp1448
S'-'
aS'-'
asg1123
I01
sg1111
F109.47122063449069
sbag1
(g1267
g3
(lp1449
g637
ag110
ag615
atRp1450
(dp1451
g1121
(lp1452
S'-'
aS'-'
asg1123
I01
sg1111
F109.47122063449069
sbag1
(g1267
g3
(lp1453
g329
ag142
ag307
atRp1454
(dp1455
g1121
(lp1456
S'-'
aS'-'
asg1123
I01
sg1111
F109.47122063449069
sbag1
(g1267
g3
(lp1457
g196
ag158
ag174
atRp1458
(dp1459
g1121
(lp1460
S'-'
aS'-'
asg1123
I01
sg1111
F109.47122063449069
sbag1
(g1267
g3
(lp1461
g420
ag382
ag398
atRp1462
(dp1463
g1121
(lp1464
S'-'
aS'-'
asg1123
I01
sg1111
F109.47122063449069
sbag1
(g1267
g3
(lp1465
g441
ag382
ag398
atRp1466
(dp1467
g1121
(lp1468
S'-'
aS'-'
asg1123
I01
sg1111
F109.47122063449069
sbag1
(g1267
g3
(lp1469
g441
ag382
ag420
atRp1470
(dp1471
g1121
(lp1472
S'-'
aS'-'
asg1123
I01
sg1111
F109.47122063449069
sbag1
(g1267
g3
(lp1473
g506
ag469
ag485
atRp1474
(dp1475
g1121
(lp1476
S'-'
aS'-'
asg1123
I01
sg1111
F109.47122063449069
sbag1
(g1267
g3
(lp1477
g527
ag469
ag485
atRp1478
(dp1479
g1121
(lp1480
S'-'
aS'-'
asg1123
I01
sg1111
F109.47122063449069
sbag1
(g1267
g3
(lp1481
g527
ag469
ag506
atRp1482
(dp1483
g1121
(lp1484
S'-'
aS'-'
asg1123
I01
sg1111
F109.47122063449069
sbag1
(g1267
g3
(lp1485
g727
ag690
ag706
atRp1486
(dp1487
g1121
(lp1488
S'-'
aS'-'
asg1123
I01
sg1111
F109.47122063449069
sbag1
(g1267
g3
(lp1489
g748
ag690
ag706
atRp1490
(dp1491
g1121
(lp1492
S'-'
aS'-'
asg1123
I01
sg1111
F109.47122063449069
sbag1
(g1267
g3
(lp1493
g748
ag690
ag727
atRp1494
(dp1495
g1121
(lp1496
S'-'
aS'-'
asg1123
I01
sg1111
F109.47122063449069
sbatRp1497
sS'dihedrals'
p1498
g1
(g1114
g3
(lp1499
g1
(celbow.chemistry.DihedralClass
DihedralClass
p1500
g3
(lp1501
g126
ag110
ag39
ag5
atRp1502
(dp1503
g1121
(lp1504
S'-'
aS'-'
aS'-'
asg1123
I00
sbag1
(g1500
g3
(lp1505
g615
ag110
ag39
ag5
atRp1506
(dp1507
g1121
(lp1508
S'-'
aS'-'
aS'-'
asg1123
I00
sbag1
(g1500
g3
(lp1509
g637
ag110
ag39
ag5
atRp1510
(dp1511
g1121
(lp1512
S'-'
aS'-'
aS'-'
asg1123
I00
sbag1
(g1500
g3
(lp1513
g126
ag142
ag158
ag5
atRp1514
(dp1515
g1121
(lp1516
S'-'
aS'-'
aS'-'
asg1123
I00
sbag1
(g1500
g3
(lp1517
g307
ag142
ag158
ag5
atRp1518
(dp1519
g1121
(lp1520
S'-'
aS'-'
aS'-'
asg1123
I00
sbag1
(g1500
g3
(lp1521
g329
ag142
ag158
ag5
atRp1522
(dp1523
g1121
(lp1524
S'-'
aS'-'
aS'-'
asg1123
I00
sbag1
(g1500
g3
(lp1525
g110
ag126
ag366
ag5
atRp1526
(dp1527
g1121
(lp1528
S'-'
aS'-'
aS'-'
asg1123
I00
sbag1
(g1500
g3
(lp1529
g142
ag126
ag366
ag5
atRp1530
(dp1531
g1121
(lp1532
S'-'
aS'-'
aS'-'
asg1123
I00
sbag1
(g1500
g3
(lp1533
g571
ag126
ag366
ag5
atRp1534
(dp1535
g1121
(lp1536
S'-'
aS'-'
aS'-'
asg1123
I00
sbag1
(g1500
g3
(lp1537
g398
ag382
ag366
ag5
atRp1538
(dp1539
g1121
(lp1540
S'-'
aS'-'
aS'-'
asg1123
I00
sbag1
(g1500
g3
(lp1541
g420
ag382
ag366
ag5
atRp1542
(dp1543
g1121
(lp1544
S'-'
aS'-'
aS'-'
asg1123
I00
sbag1
(g1500
g3
(lp1545
g441
ag382
ag366
ag5
atRp1546
(dp1547
g1121
(lp1548
S'-'
aS'-'
aS'-'
asg1123
I00
sbag1
(g1500
g3
(lp1549
g485
ag469
ag366
ag5
atRp1550
(dp1551
g1121
(lp1552
S'-'
aS'-'
aS'-'
asg1123
I00
sbag1
(g1500
g3
(lp1553
g506
ag469
ag366
ag5
atRp1554
(dp1555
g1121
(lp1556
S'-'
aS'-'
aS'-'
asg1123
I00
sbag1
(g1500
g3
(lp1557
g527
ag469
ag366
ag5
atRp1558
(dp1559
g1121
(lp1560
S'-'
aS'-'
aS'-'
asg1123
I00
sbag1
(g1500
g3
(lp1561
g142
ag158
ag5
ag39
atRp1562
(dp1563
g1121
(lp1564
S'-'
aS'-'
aS'-'
asg1123
I00
sbag1
(g1500
g3
(lp1565
g174
ag158
ag5
ag39
atRp1566
(dp1567
g1121
(lp1568
S'-'
aS'-'
aS'-'
asg1123
I00
sbag1
(g1500
g3
(lp1569
g196
ag158
ag5
ag39
atRp1570
(dp1571
g1121
(lp1572
S'-'
aS'-'
aS'-'
asg1123
I00
sbag1
(g1500
g3
(lp1573
g126
ag366
ag5
ag39
atRp1574
(dp1575
g1121
(lp1576
S'-'
aS'-'
aS'-'
asg1123
I00
sbag1
(g1500
g3
(lp1577
g382
ag366
ag5
ag39
atRp1578
(dp1579
g1121
(lp1580
S'-'
aS'-'
aS'-'
asg1123
I00
sbag1
(g1500
g3
(lp1581
g469
ag366
ag5
ag39
atRp1582
(dp1583
g1121
(lp1584
S'-'
aS'-'
aS'-'
asg1123
I00
sbag1
(g1500
g3
(lp1585
g706
ag690
ag5
ag39
atRp1586
(dp1587
g1121
(lp1588
S'-'
aS'-'
aS'-'
asg1123
I00
sbag1
(g1500
g3
(lp1589
g727
ag690
ag5
ag39
atRp1590
(dp1591
g1121
(lp1592
S'-'
aS'-'
aS'-'
asg1123
I00
sbag1
(g1500
g3
(lp1593
g748
ag690
ag5
ag39
atRp1594
(dp1595
g1121
(lp1596
S'-'
aS'-'
aS'-'
asg1123
I00
sbag1
(g1500
g3
(lp1597
g142
ag126
ag110
ag39
atRp1598
(dp1599
g1121
(lp1600
S'-'
aS'-'
aS'-'
asg1123
I00
sbag1
(g1500
g3
(lp1601
g366
ag126
ag110
ag39
atRp1602
(dp1603
g1121
(lp1604
S'-'
aS'-'
aS'-'
asg1123
I00
sbag1
(g1500
g3
(lp1605
g571
ag126
ag110
ag39
atRp1606
(dp1607
g1121
(lp1608
S'-'
aS'-'
aS'-'
asg1123
I00
sbag1
(g1500
g3
(lp1609
g158
ag5
ag39
ag55
atRp1610
(dp1611
g1121
(lp1612
S'-'
aS'-'
aS'='
asg1123
I00
sbag1
(g1500
g3
(lp1613
g366
ag5
ag39
ag55
atRp1614
(dp1615
g1121
(lp1616
S'-'
aS'-'
aS'='
asg1123
I00
sbag1
(g1500
g3
(lp1617
g690
ag5
ag39
ag55
atRp1618
(dp1619
g1121
(lp1620
S'-'
aS'-'
aS'='
asg1123
I00
sbag1
(g1500
g3
(lp1621
g126
ag110
ag39
ag55
atRp1622
(dp1623
g1121
(lp1624
S'-'
aS'-'
aS'='
asg1123
I00
sbag1
(g1500
g3
(lp1625
g615
ag110
ag39
ag55
atRp1626
(dp1627
g1121
(lp1628
S'-'
aS'-'
aS'='
asg1123
I00
sbag1
(g1500
g3
(lp1629
g637
ag110
ag39
ag55
atRp1630
(dp1631
g1121
(lp1632
S'-'
aS'-'
aS'='
asg1123
I00
sbag1
(g1500
g3
(lp1633
g158
ag5
ag39
ag110
atRp1634
(dp1635
g1121
(lp1636
S'-'
aS'-'
aS'-'
asg1123
I00
sbag1
(g1500
g3
(lp1637
g366
ag5
ag39
ag110
atRp1638
(dp1639
g1121
(lp1640
S'-'
aS'-'
aS'-'
asg1123
I00
sbag1
(g1500
g3
(lp1641
g690
ag5
ag39
ag110
atRp1642
(dp1643
g1121
(lp1644
S'-'
aS'-'
aS'-'
asg1123
I00
sbag1
(g1500
g3
(lp1645
g158
ag142
ag126
ag110
atRp1646
(dp1647
g1121
(lp1648
S'-'
aS'-'
aS'-'
asg1123
I00
sbag1
(g1500
g3
(lp1649
g307
ag142
ag126
ag110
atRp1650
(dp1651
g1121
(lp1652
S'-'
aS'-'
aS'-'
asg1123
I00
sbag1
(g1500
g3
(lp1653
g329
ag142
ag126
ag110
atRp1654
(dp1655
g1121
(lp1656
S'-'
aS'-'
aS'-'
asg1123
I00
sbag1
(g1500
g3
(lp1657
g382
ag366
ag126
ag110
atRp1658
(dp1659
g1121
(lp1660
S'-'
aS'-'
aS'-'
asg1123
I00
sbag1
(g1500
g3
(lp1661
g469
ag366
ag126
ag110
atRp1662
(dp1663
g1121
(lp1664
S'-'
aS'-'
aS'-'
asg1123
I00
sbag1
(g1500
g3
(lp1665
g174
ag158
ag142
ag126
atRp1666
(dp1667
g1121
(lp1668
S'-'
aS'-'
aS'-'
asg1123
I00
sbag1
(g1500
g3
(lp1669
g196
ag158
ag142
ag126
atRp1670
(dp1671
g1121
(lp1672
S'-'
aS'-'
aS'-'
asg1123
I00
sbag1
(g1500
g3
(lp1673
g158
ag5
ag366
ag126
atRp1674
(dp1675
g1121
(lp1676
S'-'
aS'-'
aS'-'
asg1123
I00
sbag1
(g1500
g3
(lp1677
g690
ag5
ag366
ag126
atRp1678
(dp1679
g1121
(lp1680
S'-'
aS'-'
aS'-'
asg1123
I00
sbag1
(g1500
g3
(lp1681
g398
ag382
ag366
ag126
atRp1682
(dp1683
g1121
(lp1684
S'-'
aS'-'
aS'-'
asg1123
I00
sbag1
(g1500
g3
(lp1685
g420
ag382
ag366
ag126
atRp1686
(dp1687
g1121
(lp1688
S'-'
aS'-'
aS'-'
asg1123
I00
sbag1
(g1500
g3
(lp1689
g441
ag382
ag366
ag126
atRp1690
(dp1691
g1121
(lp1692
S'-'
aS'-'
aS'-'
asg1123
I00
sbag1
(g1500
g3
(lp1693
g485
ag469
ag366
ag126
atRp1694
(dp1695
g1121
(lp1696
S'-'
aS'-'
aS'-'
asg1123
I00
sbag1
(g1500
g3
(lp1697
g506
ag469
ag366
ag126
atRp1698
(dp1699
g1121
(lp1700
S'-'
aS'-'
aS'-'
asg1123
I00
sbag1
(g1500
g3
(lp1701
g527
ag469
ag366
ag126
atRp1702
(dp1703
g1121
(lp1704
S'-'
aS'-'
aS'-'
asg1123
I00
sbag1
(g1500
g3
(lp1705
g615
ag110
ag126
ag142
atRp1706
(dp1707
g1121
(lp1708
S'-'
aS'-'
aS'-'
asg1123
I00
sbag1
(g1500
g3
(lp1709
g637
ag110
ag126
ag142
atRp1710
(dp1711
g1121
(lp1712
S'-'
aS'-'
aS'-'
asg1123
I00
sbag1
(g1500
g3
(lp1713
g382
ag366
ag126
ag142
atRp1714
(dp1715
g1121
(lp1716
S'-'
aS'-'
aS'-'
asg1123
I00
sbag1
(g1500
g3
(lp1717
g469
ag366
ag126
ag142
atRp1718
(dp1719
g1121
(lp1720
S'-'
aS'-'
aS'-'
asg1123
I00
sbag1
(g1500
g3
(lp1721
g366
ag5
ag158
ag142
atRp1722
(dp1723
g1121
(lp1724
S'-'
aS'-'
aS'-'
asg1123
I00
sbag1
(g1500
g3
(lp1725
g690
ag5
ag158
ag142
atRp1726
(dp1727
g1121
(lp1728
S'-'
aS'-'
aS'-'
asg1123
I00
sbag1
(g1500
g3
(lp1729
g382
ag366
ag5
ag158
atRp1730
(dp1731
g1121
(lp1732
S'-'
aS'-'
aS'-'
asg1123
I00
sbag1
(g1500
g3
(lp1733
g469
ag366
ag5
ag158
atRp1734
(dp1735
g1121
(lp1736
S'-'
aS'-'
aS'-'
asg1123
I00
sbag1
(g1500
g3
(lp1737
g706
ag690
ag5
ag158
atRp1738
(dp1739
g1121
(lp1740
S'-'
aS'-'
aS'-'
asg1123
I00
sbag1
(g1500
g3
(lp1741
g727
ag690
ag5
ag158
atRp1742
(dp1743
g1121
(lp1744
S'-'
aS'-'
aS'-'
asg1123
I00
sbag1
(g1500
g3
(lp1745
g748
ag690
ag5
ag158
atRp1746
(dp1747
g1121
(lp1748
S'-'
aS'-'
aS'-'
asg1123
I00
sbag1
(g1500
g3
(lp1749
g366
ag126
ag142
ag158
atRp1750
(dp1751
g1121
(lp1752
S'-'
aS'-'
aS'-'
asg1123
I00
sbag1
(g1500
g3
(lp1753
g571
ag126
ag142
ag158
atRp1754
(dp1755
g1121
(lp1756
S'-'
aS'-'
aS'-'
asg1123
I00
sbag1
(g1500
g3
(lp1757
g174
ag158
ag5
ag366
atRp1758
(dp1759
g1121
(lp1760
S'-'
aS'-'
aS'-'
asg1123
I00
sbag1
(g1500
g3
(lp1761
g196
ag158
ag5
ag366
atRp1762
(dp1763
g1121
(lp1764
S'-'
aS'-'
aS'-'
asg1123
I00
sbag1
(g1500
g3
(lp1765
g706
ag690
ag5
ag366
atRp1766
(dp1767
g1121
(lp1768
S'-'
aS'-'
aS'-'
asg1123
I00
sbag1
(g1500
g3
(lp1769
g727
ag690
ag5
ag366
atRp1770
(dp1771
g1121
(lp1772
S'-'
aS'-'
aS'-'
asg1123
I00
sbag1
(g1500
g3
(lp1773
g748
ag690
ag5
ag366
atRp1774
(dp1775
g1121
(lp1776
S'-'
aS'-'
aS'-'
asg1123
I00
sbag1
(g1500
g3
(lp1777
g615
ag110
ag126
ag366
atRp1778
(dp1779
g1121
(lp1780
S'-'
aS'-'
aS'-'
asg1123
I00
sbag1
(g1500
g3
(lp1781
g637
ag110
ag126
ag366
atRp1782
(dp1783
g1121
(lp1784
S'-'
aS'-'
aS'-'
asg1123
I00
sbag1
(g1500
g3
(lp1785
g307
ag142
ag126
ag366
atRp1786
(dp1787
g1121
(lp1788
S'-'
aS'-'
aS'-'
asg1123
I00
sbag1
(g1500
g3
(lp1789
g329
ag142
ag126
ag366
atRp1790
(dp1791
g1121
(lp1792
S'-'
aS'-'
aS'-'
asg1123
I00
sbag1
(g1500
g3
(lp1793
g690
ag5
ag366
ag382
atRp1794
(dp1795
g1121
(lp1796
S'-'
aS'-'
aS'-'
asg1123
I00
sbag1
(g1500
g3
(lp1797
g571
ag126
ag366
ag382
atRp1798
(dp1799
g1121
(lp1800
S'-'
aS'-'
aS'-'
asg1123
I00
sbag1
(g1500
g3
(lp1801
g485
ag469
ag366
ag382
atRp1802
(dp1803
g1121
(lp1804
S'-'
aS'-'
aS'-'
asg1123
I00
sbag1
(g1500
g3
(lp1805
g506
ag469
ag366
ag382
atRp1806
(dp1807
g1121
(lp1808
S'-'
aS'-'
aS'-'
asg1123
I00
sbag1
(g1500
g3
(lp1809
g527
ag469
ag366
ag382
atRp1810
(dp1811
g1121
(lp1812
S'-'
aS'-'
aS'-'
asg1123
I00
sbag1
(g1500
g3
(lp1813
g690
ag5
ag366
ag469
atRp1814
(dp1815
g1121
(lp1816
S'-'
aS'-'
aS'-'
asg1123
I00
sbag1
(g1500
g3
(lp1817
g571
ag126
ag366
ag469
atRp1818
(dp1819
g1121
(lp1820
S'-'
aS'-'
aS'-'
asg1123
I00
sbag1
(g1500
g3
(lp1821
g398
ag382
ag366
ag469
atRp1822
(dp1823
g1121
(lp1824
S'-'
aS'-'
aS'-'
asg1123
I00
sbag1
(g1500
g3
(lp1825
g420
ag382
ag366
ag469
atRp1826
(dp1827
g1121
(lp1828
S'-'
aS'-'
aS'-'
asg1123
I00
sbag1
(g1500
g3
(lp1829
g441
ag382
ag366
ag469
atRp1830
(dp1831
g1121
(lp1832
S'-'
aS'-'
aS'-'
asg1123
I00
sbag1
(g1500
g3
(lp1833
g174
ag158
ag5
ag690
atRp1834
(dp1835
g1121
(lp1836
S'-'
aS'-'
aS'-'
asg1123
I00
sbag1
(g1500
g3
(lp1837
g196
ag158
ag5
ag690
atRp1838
(dp1839
g1121
(lp1840
S'-'
aS'-'
aS'-'
asg1123
I00
sbag1
(g1500
g3
(lp1841
g571
ag126
ag110
ag615
atRp1842
(dp1843
g1121
(lp1844
S'-'
aS'-'
aS'-'
asg1123
I00
sbag1
(g1500
g3
(lp1845
g571
ag126
ag110
ag637
atRp1846
(dp1847
g1121
(lp1848
S'-'
aS'-'
aS'-'
asg1123
I00
sbag1
(g1500
g3
(lp1849
g307
ag142
ag126
ag571
atRp1850
(dp1851
g1121
(lp1852
S'-'
aS'-'
aS'-'
asg1123
I00
sbag1
(g1500
g3
(lp1853
g329
ag142
ag126
ag571
atRp1854
(dp1855
g1121
(lp1856
S'-'
aS'-'
aS'-'
asg1123
I00
sbag1
(g1500
g3
(lp1857
g174
ag158
ag142
ag307
atRp1858
(dp1859
g1121
(lp1860
S'-'
aS'-'
aS'-'
asg1123
I00
sbag1
(g1500
g3
(lp1861
g196
ag158
ag142
ag307
atRp1862
(dp1863
g1121
(lp1864
S'-'
aS'-'
aS'-'
asg1123
I00
sbag1
(g1500
g3
(lp1865
g174
ag158
ag142
ag329
atRp1866
(dp1867
g1121
(lp1868
S'-'
aS'-'
aS'-'
asg1123
I00
sbag1
(g1500
g3
(lp1869
g196
ag158
ag142
ag329
atRp1870
(dp1871
g1121
(lp1872
S'-'
aS'-'
aS'-'
asg1123
I00
sbatRp1873
sg937
I01
sg938
(dp1874
g940
(dp1875
g942
F0.25
sg943
I50
ssg944
(dp1876
g942
F1
sg943
F100
ssg946
(dp1877
g942
I10
sg943
F100
ssg948
(dp1878
g950
F0.10000000000000001
sg951
F100
sg942
F1.5
sg102
F50
sg952
F0.25
sg953
F0.20000000000000001
ssg954
(dp1879
g956
F10
sg942
F2
sg958
F10
sg957
F1
sg943
F200
ssg959
(dp1880
g943
F100
sssS'input_volume'
p1881
F-2.7416130034035215
sS'CIF_three_letter_code'
p1882
S'CAM'
p1883
sg972
I01
sS'chiral_atom'
p1884
g5
sS'zmatrix_class'
p1885
g1
(celbow.chemistry.ZMatrixClass
ZMatrixClass
p1886
g3
(lp1887
g1
(celbow.chemistry.ZMatrixClass
ZMatrixLine
p1888
g3
(lp1889
g5
atRp1890
(dp1891
S'bond_index'
p1892
I2
sS'dihedral_index'
p1893
I6
sS'variable_set'
p1894
I00
sS'variable'
p1895
(lp1896
I00
aI00
aI00
asS'ring'
p1897
I01
sS'angle_index'
p1898
I4
sg1111
Nsbag1
(g1888
g3
(lp1899
g39
ag5
aF1.527126
atRp1900
(dp1901
g1892
I2
sg1893
I6
sg1894
I00
sg1895
(lp1902
I00
aI00
aI00
asg1897
I01
sg1898
I4
sg1111
F1.527126
sbag1
(g1888
g3
(lp1903
g158
ag5
aF1.527126
ag39
aF109.47122063449069
atRp1904
(dp1905
g1892
I2
sg1893
I6
sg1894
I00
sg1895
(lp1906
I00
aI00
aI00
asg1897
I01
sg1898
I4
sg1111
F1.527126
sbag1
(g1888
g3
(lp1907
g366
ag5
aF1.6974431163024117
ag39
aF91.911041886588748
ag158
aF-94.647789476174836
atRp1908
(dp1909
S'added_atom'
p1910
I00
sg1894
I01
sg1898
I4
sg1892
I2
sg1893
I6
sg1895
(lp1911
I00
aI00
aI00
asg1897
I01
sg1111
F1.6974431163024117
sbag1
(g1888
g3
(lp1912
g690
ag5
aF1.9354567214853569
ag39
aF118.15221647489668
ag158
aF142.36877864086344
atRp1913
(dp1914
g1910
I00
sg1894
I01
sg1898
I4
sg1892
I2
sg1893
I6
sg1895
(lp1915
I00
aI00
aI00
asg1897
I00
sg1111
F1.9354567214853569
sbatRp1916
(dp1917
g937
I01
sg938
g1874
sg1112
g1106
sg1113
g1208
sg972
I01
sS'atoms'
p1918
(lp1919
g5
ag39
ag158
ag366
ag690
asS'restraint_class'
p1920
g1014
sg1265
g1497
sS'use_parent_energise'
p1921
I01
sg1498
g1873
sbsg1920
g1014
sS'original_order'
p1922
(lp1923
g366
ag5
ag158
ag39
ag690
asbsI2
g1
(g1104
g3
(lp1924
g571
ag126
ag110
ag142
ag366
atRp1925
(dp1926
g1108
(lp1927
g571
ag142
ag110
ag366
asg1110
I139907882765488
sg1111
F-2.7416130034035215
sg1112
g794
sg1113
g1208
sg1209
(lp1928
I5
asg1211
(dp1929
S' C1 : C7 '
p1930
g1131
sS' C3 : C2 '
p1931
g1140
sS' C3 : H31'
p1932
g1146
sS' C3 : H32'
p1933
g1149
sS' C10:H101'
p1934
g1200
sS' C6 : C5 '
p1935
g1161
sS' C5 : C6 '
p1936
g1161
sS' C5 : H51'
p1937
g1164
sS' H62: C6 '
p1938
g1173
sS' C6 : H62'
p1939
g1173
sS' C6 : H61'
p1940
g1170
sS' C7 : C8 '
p1941
g1176
sS' C1 : C10'
p1942
g1134
sS' C4 : C3 '
p1943
g1143
sS' C4 : C7 '
p1944
g1155
sS' C6 : C1 '
p1945
g1128
sS' C10:H102'
p1946
g1203
sS' H52: C5 '
p1947
g1167
sS' C9 : H91'
p1948
g1191
sS' C9 : H92'
p1949
g1194
sS' C10:H103'
p1950
g1206
sS' C8 : C7 '
p1951
g1176
sS' C1 : C2 '
p1952
g1118
sS' C10: C1 '
p1953
g1134
sS' H81: C8 '
p1954
g1182
sS' H92: C9 '
p1955
g1194
sS' H51: C5 '
p1956
g1164
sS' C1 : C6 '
p1957
g1128
sS' C2 : O  '
p1958
g1137
sS' C5 : H52'
p1959
g1167
sS' C9 : H93'
p1960
g1197
sS' C4 : C5 '
p1961
g1152
sS' C8 : H82'
p1962
g1185
sS' C8 : H83'
p1963
g1188
sS' C8 : H81'
p1964
g1182
sS' C7 : C9 '
p1965
g1179
sS' H31: C3 '
p1966
g1146
sS' C2 : C3 '
p1967
g1140
sS' H61: C6 '
p1968
g1170
sS'H103: C10'
p1969
g1206
sS'H102: C10'
p1970
g1203
sS' O  : C2 '
p1971
g1137
sS' C7 : C1 '
p1972
g1131
sS' H82: C8 '
p1973
g1185
sS'H101: C10'
p1974
g1200
sS' H32: C3 '
p1975
g1149
sS' H83: C8 '
p1976
g1188
sS' H91: C9 '
p1977
g1191
sS' C2 : C1 '
p1978
g1118
sS' C9 : C7 '
p1979
g1179
sS' H93: C9 '
p1980
g1197
ssg1264
g571
sg1265
g1497
sg1498
g1873
sg937
I01
sg938
g1874
sg1881
F-2.7416130034035215
sg1882
g1883
sg972
I01
sg1884
g126
sg1885
g1
(g1886
g3
(lp1981
g1
(g1888
g3
(lp1982
g110
atRp1983
(dp1984
g1892
I2
sg1893
I6
sg1894
I00
sg1895
(lp1985
I00
aI00
aI00
asg1897
I01
sg1898
I4
sg1111
Nsbag1
(g1888
g3
(lp1986
g126
ag110
aF1.527126
atRp1987
(dp1988
g1892
I2
sg1893
I6
sg1894
I00
sg1895
(lp1989
I00
aI00
aI00
asg1897
I01
sg1898
I4
sg1111
F1.527126
sbag1
(g1888
g3
(lp1990
g142
ag126
aF1.527126
ag110
aF109.47122063449069
atRp1991
(dp1992
g1892
I2
sg1893
I6
sg1894
I00
sg1895
(lp1993
I00
aI00
aI00
asg1897
I01
sg1898
I4
sg1111
F1.527126
sbag1
(g1888
g3
(lp1994
g366
ag126
aF1.527126
ag110
aF109.47122063449069
ag142
aF120
atRp1995
(dp1996
g1892
I2
sg1893
I6
sg1894
I00
sg1895
(lp1997
I00
aI00
aI00
asg1897
I00
sg1898
I4
sg1111
F1.527126
sbag1
(g1888
g3
(lp1998
g571
ag126
aF1.0833090000000001
ag110
aF118.95714235232778
ag142
aF-145.49320242910679
atRp1999
(dp2000
g1910
I01
sg1894
I01
sg1898
I4
sg1892
I2
sg1893
I6
sg1895
(lp2001
I00
aI00
aI00
asg1897
I00
sg1111
F1.0833090000000001
sbatRp2002
(dp2003
g937
I01
sg938
g1874
sg1112
g1925
sg1113
g1208
sg972
I01
sg1918
(lp2004
g110
ag126
ag142
ag366
ag571
asg1920
g1058
sg1265
g1497
sg1921
I01
sg1498
g1873
sbsg1920
g1058
sg1922
(lp2005
g571
ag126
ag110
ag142
ag366
asbssS'ring_atom_lists'
p2006
(lp2007
(lp2008
S'1'
aS'8'
aS'5'
aS'4'
aS'2'
aa(lp2009
S'1'
aS'7'
aS'6'
aS'5'
aS'4'
aS'2'
aa(lp2010
S'1'
aS'8'
aS'5'
aS'6'
aS'7'
aasS'invisible_plane'
p2011
g1
(celbow.chemistry.PeptideClass
PeptideClass
p2012
g3
(ltRp2013
(dp2014
g1920
g1
(g986
g987
(dtRp2015
(dp2016
g1024
Nsg1016
(dp2017
sg1031
I00
sg1018
(lp2018
sg1022
(dp2019
sbsS'dihedral_const_var_type'
p2020
(lp2021
sbsS'rotation_step'
p2022
I10
sg938
g1874
sS'CIF_name'
p2023
S'Unknown'
p2024
sS'EnergyTerms'
p2025
Nsg1882
g1883
sS'RotationSubUnits'
p2026
(dp2027
sS'filename_preamble'
p2028
g1095
sS'ring_restraint'
p2029
g1
(celbow.chemistry.RingTopologyMixins
empty_dict
p2030
g987
(dp2031
I1
g1
(g986
g987
(dp2032
I1
(F1.600000000000001
F0
I2
tp2033
sI2
(F0
F0
I2
tp2034
sI4
(F-0.80000000000000027
F1.3856406460551018
I2
tp2035
sI5
(F-4.4408920985006262e-16
F2.7712812921102041
I2
tp2036
sI6
(F1.5999999999999999
F2.7712812921102046
I2
tp2037
sI7
(F2.4000000000000008
F1.3856406460551027
I2
tp2038
s(I5
I6
tp2039
(lp2040
F1.527126
aF200
as(I6
I7
I1
tp2041
(lp2042
F113
aF10
as(I7
I1
I2
tp2043
(lp2044
F113
aF10
as(I1
I2
I4
tp2045
(lp2046
F113
aF10
as(I5
I6
I7
I1
tp2047
(lp2048
F55
aF1
aI1
a(F-55
tp2049
as(I4
I5
I6
tp2050
(lp2051
F113
aF10
as(I6
I7
I1
I2
tp2052
(lp2053
F55
aF1
aI1
ag2049
as(I4
I5
I6
I7
tp2054
(lp2055
F55
aF1
aI1
ag2049
as(I1
I2
tp2056
(lp2057
F1.527126
aF200
as(I5
I6
I7
tp2058
(lp2059
F113
aF10
as(I6
I7
tp2060
(lp2061
F1.527126
aF200
as(I7
I1
I2
I4
tp2062
(lp2063
F55
aF1
aI1
ag2049
as(I7
I1
tp2064
(lp2065
F1.527126
aF200
as(I4
I5
tp2066
(lp2067
F1.527126
aF200
as(I2
I4
I5
tp2068
(lp2069
F113
aF10
as(I2
I4
tp2070
(lp2071
F1.527126
aF200
as(I2
I4
I5
I6
tp2072
(lp2073
F55
aF1
aI1
ag2049
as(I1
I2
I4
I5
tp2074
(lp2075
F55
aF1
aI1
ag2049
astRp2076
(dp2077
g1024
Nsg1016
(dp2078
I1
I0
sI2
I1
sI4
I2
sI5
I3
sI6
I4
sI7
I5
ssg1031
I00
sg1018
(lp2079
sg1022
(dp2080
sbstRp2081
sS'loop_class'
p2082
(lp2083
sS'CIF_id'
p2084
S'CAM'
p2085
sg78
I0
sS'residue_name'
p2086
g1095
sS'temp_pdb'
p2087
S'/tmp/tmpdcf7TA'
p2088
sS'ring_dihedrals'
p2089
(lp2090
sS'maximum_bond_length'
p2091
F3
sS'peptide_class'
p2092
g1
(g2012
g3
(ltRp2093
(dp2094
g1920
g1
(g986
g987
(dtRp2095
(dp2096
g1024
Nsg1016
(dp2097
sg1031
I00
sg1018
(lp2098
sg1022
(dp2099
sbsg2020
(lp2100
sbsg975
(dp2101
g954
(dp2102
g942
(dp2103
I3
F60
sI4
F90
sI5
F106
sI6
F113
ssg979
(dp2104
I5
(lp2105
F25
aI10
asI6
(lp2106
F55
aI1
assssS'molecule_number'
p2107
I0
sS'ring_zmatrix'
p2108
(dp2109
I1
g1
(g1886
g3
(lp2110
g1
(g1888
g3
(lp2111
g5
atRp2112
(dp2113
g1910
I00
sg1894
I01
sg1898
I4
sg1892
I2
sg1893
I6
sg1895
(lp2114
I00
aI00
aI00
asg1897
I01
sg1111
Nsbag1
(g1888
g3
(lp2115
g39
ag5
aF1.3849559295504725
atRp2116
(dp2117
g1910
I00
sg1894
I01
sg1898
I4
sg1892
I2
sg1893
I6
sg1895
(lp2118
I00
aI00
aI00
asg1897
I01
sg1111
F1.3849559295504725
sbag1
(g1888
g3
(lp2119
g110
ag39
aF1.2785905956510335
ag5
aF116.89880008153771
atRp2120
(dp2121
g1910
I00
sg1894
I01
sg1898
I4
sg1892
I2
sg1893
I6
sg1895
(lp2122
I00
aI00
aI00
asg1897
I01
sg1111
F1.2785905956510335
sbag1
(g1888
g3
(lp2123
g126
ag110
aF1.4304400224858065
ag39
aF110.0448858755142
ag5
aI0
atRp2124
(dp2125
g1910
I00
sg1894
I01
sg1898
I4
sg1892
I2
sg1893
I6
sg1895
(lp2126
I00
aI00
aI00
asg1897
I01
sg1111
F1.4304400224858065
sbag1
(g1888
g3
(lp2127
g142
ag126
aF1.4314203112901425
ag110
aF112.18222652301125
ag39
aF-55.305319186523022
atRp2128
(dp2129
g1910
I00
sg1894
I01
sg1898
I4
sg1892
I2
sg1893
I6
sg1895
(lp2130
I00
aI00
aI00
asg1897
I01
sg1111
F1.4314203112901425
sbag1
(g1888
g3
(lp2131
g158
ag5
aF1.4324407178965952
ag39
aF111.67070232315324
ag110
aF54.011133463279762
atRp2132
(dp2133
g1910
I00
sg1894
I01
sg1898
I4
sg1892
I2
sg1893
I6
sg1895
(lp2134
I00
aI00
aI00
asg1897
I01
sg1111
F1.4324407178965952
sbatRp2135
(dp2136
g937
I01
sg938
g1874
sg1112
g794
sg1113
g1208
sg972
I01
sg1918
(lp2137
g5
ag39
ag110
ag126
ag142
ag158
asg1920
g2076
sg1265
g1497
sg1921
I01
sg1498
g1873
sbssS'chiral_zmatrix'
p2138
(dp2139
I1
g1916
sI2
g2002
ssS'trace'
p2140
(dp2141
I0
(dp2142
S'C'
I1
ssI1
(dp2143
S'H'
I3
sssg1113
g1208
sS'start_time'
p2144
F1603435289.826844
sS'UseCIFWeights'
p2145
I01
sg964
(lp2146
sS'ring_class'
p2147
(lp2148
g1
(g800
g3
(lp2149
(lp2150
g5
ag158
ag142
ag126
ag110
ag39
aatRp2151
(dp2152
g937
I01
sg938
g1874
sg972
I01
sS'allowed'
p2153
(dp2154
sg962
(dp2155
I0
(lp2156
(lp2157
asI1
(lp2158
(lp2159
I0
aassg970
(lp2160
F0
aF0
aF0
aF0
aF0
aF0
aF0
aF0
aF0
aF0
aF0
aF0
aF0
aF0
aF0
aF0
aF0
aF0
asg966
(lp2161
sg1920
g2076
sg968
(dp2162
sg964
(lp2163
sg961
I00
sg973
I01
sg974
I7
sg975
g2101
sS'ideal_ring_angles'
p2164
(lp2165
g1
(celbow.chemistry.RingClass
RingCircle
p2166
g3
(lp2167
(ielbow.chemistry.RingClass
empty
p2168
(dp2169
g74
I1
sg9
(ielbow.chemistry.xyzClass
xyzClass
p2170
(dp2171
g12
I1
sg13
F57.295779513082323
sS'y'
F0.53500000000000003
sS'x'
F-0.52500000000000002
sg14
g15
sS'z'
F-0.253
sbsg231
I0
sg16
(ielbow.chemistry.xyzClass
xyzClass
p2172
(dp2173
g12
I0
sg13
F57.295779513082323
sS'y'
F-1.3856406460551023
sS'x'
F0.80000000000000082
sg14
g238
sS'z'
F0
sbsg92
S'C'
sg220
I01
sg32
I00
sg14
(ielbow.chemistry.xyzClass
xyzClass
p2174
(dp2175
g12
I1
sg13
F57.295779513082323
sS'y'
F0
sS'x'
F1.600000000000001
sg14
g294
sS'z'
I2
sbsba(ielbow.chemistry.RingClass
empty
p2176
(dp2177
g74
I7
sg9
(ielbow.chemistry.xyzClass
xyzClass
p2178
(dp2179
g12
I1
sg13
F57.295779513082323
sS'y'
F1.663
sS'x'
F0.48399999999999999
sg14
g162
sS'z'
F0.186
sbsg231
I1
sg16
(ielbow.chemistry.xyzClass
xyzClass
p2180
(dp2181
g12
I0
sg13
F57.295779513082323
sS'y'
F4.4408920985006262e-16
sS'x'
F1.6000000000000005
sg14
g268
sS'z'
F0
sbsg92
S'C'
sg220
I01
sg32
I00
sg14
(ielbow.chemistry.xyzClass
xyzClass
p2182
(dp2183
g12
I1
sg13
F57.295779513082323
sS'y'
F1.3856406460551027
sS'x'
F2.4000000000000008
sg14
g273
sS'z'
I2
sbsba(ielbow.chemistry.RingClass
empty
p2184
(dp2185
g74
I6
sg9
(ielbow.chemistry.xyzClass
xyzClass
p2186
(dp2187
g12
I1
sg13
F57.295779513082323
sS'y'
F0.89700000000000002
sS'x'
F1.657
sg14
g146
sS'z'
F0.84099999999999997
sbsg231
I0
sg16
(ielbow.chemistry.xyzClass
xyzClass
p2188
(dp2189
g12
I0
sg13
F57.295779513082323
sS'y'
F1.3856406460551023
sS'x'
F0.79999999999999971
sg14
g262
sS'z'
F0
sbsg92
S'C'
sg220
I01
sg32
I00
sg14
(ielbow.chemistry.xyzClass
xyzClass
p2190
(dp2191
g12
I1
sg13
F57.295779513082323
sS'y'
F2.7712812921102046
sS'x'
F1.5999999999999999
sg14
g277
sS'z'
I2
sbsba(ielbow.chemistry.RingClass
empty
p2192
(dp2193
g74
I5
sg9
(ielbow.chemistry.xyzClass
xyzClass
p2194
(dp2195
g12
I1
sg13
F57.295779513082323
sS'y'
F-0.60299999999999998
sS'x'
F1.2470000000000001
sg14
g130
sS'z'
F0.73799999999999999
sbsg231
I1
sg16
(ielbow.chemistry.xyzClass
xyzClass
p2196
(dp2197
g12
I0
sg13
F57.295779513082323
sS'y'
F1.3856406460551018
sS'x'
F-0.8000000000000006
sg14
g256
sS'z'
F0
sbsg92
S'C'
sg220
I01
sg32
I00
sg14
(ielbow.chemistry.xyzClass
xyzClass
p2198
(dp2199
g12
I1
sg13
F57.295779513082323
sS'y'
F2.7712812921102041
sS'x'
F-4.4408920985006262e-16
sg14
g281
sS'z'
I2
sbsba(ielbow.chemistry.RingClass
empty
p2200
(dp2201
g74
I4
sg9
(ielbow.chemistry.xyzClass
xyzClass
p2202
(dp2203
g12
I1
sg13
F57.295779513082323
sS'y'
F-0.94299999999999995
sS'x'
F1.3320000000000001
sg14
g114
sS'z'
F-0.78100000000000003
sbsg231
I0
sg16
(ielbow.chemistry.xyzClass
xyzClass
p2204
(dp2205
g12
I0
sg13
F57.295779513082323
sS'y'
F-4.4408920985006262e-16
sS'x'
F-1.6000000000000005
sg14
g250
sS'z'
F0
sbsg92
S'C'
sg220
I01
sg32
I00
sg14
(ielbow.chemistry.xyzClass
xyzClass
p2206
(dp2207
g12
I1
sg13
F57.295779513082323
sS'y'
F1.3856406460551018
sS'x'
F-0.80000000000000027
sg14
g285
sS'z'
I2
sbsba(ielbow.chemistry.RingClass
empty
p2208
(dp2209
g74
I2
sg9
(ielbow.chemistry.xyzClass
xyzClass
p2210
(dp2211
g12
I1
sg13
F57.295779513082323
sS'y'
F-0.17199999999999999
sS'x'
F0.17100000000000001
sg14
g43
sS'z'
F-1.4219999999999999
sbsg231
I1
sg16
(ielbow.chemistry.xyzClass
xyzClass
p2212
(dp2213
g12
I0
sg13
F57.295779513082323
sS'y'
F-1.3856406460551023
sS'x'
F-0.80000000000000016
sg14
g244
sS'z'
F0
sbsg92
S'C'
sg220
I01
sg32
I00
sg14
(ielbow.chemistry.xyzClass
xyzClass
p2214
(dp2215
g12
I1
sg13
F57.295779513082323
sS'y'
F0
sS'x'
F0
sg14
g289
sS'z'
I2
sbsg290
I01
sbatRp2216
(dp2217
g1113
(lp2218
F1.527126
aF1.527126
aF1.527126
aF1.527126
aF1.527126
aF1.527126
asbasbasg1265
g1497
sS'used_auto_bond'
p2219
I00
sg1498
g1873
sS'auto_bond_cutoff'
p2220
F4
sg937
I01
sS'CIFWeights'
p2221
(dp2222
g942
F3
sg979
F30
sS'outer_ring'
p2223
F0.050000000000000003
sS'amine'
p2224
F0.10000000000000001
sS'peptide'
p2225
F0.10000000000000001
sS'inner_ring'
p2226
F0.02
sg943
F0.02
ssS'last'
p2227
Nsg100
S''
sS'amine_class'
p2228
g1
(g2012
g3
(ltRp2229
(dp2230
g1920
g1
(g986
g987
(dtRp2231
(dp2232
g1024
Nsg1016
(dp2233
sg1031
I00
sg1018
(lp2234
sg1022
(dp2235
sbsg2020
(lp2236
sbsS'G_md5'
p2237
S'2b71225501f38e78ea1c1c3d4de2cbe3'
p2238
sS'files_written'
p2239
g1
(celbow.utilities.Utilities
PushFilename
p2240
g3
(lp2241
S'/home/liuyoujia/Desktop/MTN/4ek1/CAM.pdb'
p2242
aS'/home/liuyoujia/Desktop/MTN/4ek1/CAM.cif'
p2243
atRp2244
sg972
I01
sS'azide_class'
p2245
g1
(g2012
g3
(ltRp2246
(dp2247
g1920
g1
(g986
g987
(dtRp2248
(dp2249
g1024
Nsg1016
(dp2250
sg1031
I00
sg1018
(lp2251
sg1022
(dp2252
sbsg2020
(lp2253
sbsS'SubUnitEnergies'
p2254
(dp2255
sS'lines'
p2256
S'data_CAM\n#\n_chem_comp.id                                    CAM\n_chem_comp.name                                  CAMPHOR\n_chem_comp.type                                  NON-POLYMER\n_chem_comp.pdbx_type                             HETAIN\n_chem_comp.formula                               "C10 H16 O"\n_chem_comp.mon_nstd_parent_comp_id               ?\n_chem_comp.pdbx_synonyms                         ?\n_chem_comp.pdbx_formal_charge                    0\n_chem_comp.pdbx_initial_date                     1999-07-08\n_chem_comp.pdbx_modified_date                    2011-06-04\n_chem_comp.pdbx_ambiguous_flag                   N\n_chem_comp.pdbx_release_status                   REL\n_chem_comp.pdbx_replaced_by                      ?\n_chem_comp.pdbx_replaces                         ?\n_chem_comp.formula_weight                        152.233\n_chem_comp.one_letter_code                       ?\n_chem_comp.three_letter_code                     CAM\n_chem_comp.pdbx_model_coordinates_details        ?\n_chem_comp.pdbx_model_coordinates_missing_flag   N\n_chem_comp.pdbx_ideal_coordinates_details        ?\n_chem_comp.pdbx_ideal_coordinates_missing_flag   N\n_chem_comp.pdbx_model_coordinates_db_code        6CP4\n_chem_comp.pdbx_subcomponent_list                ?\n_chem_comp.pdbx_processing_site                  RCSB\n#\nloop_\n_chem_comp_atom.comp_id\n_chem_comp_atom.atom_id\n_chem_comp_atom.alt_atom_id\n_chem_comp_atom.type_symbol\n_chem_comp_atom.charge\n_chem_comp_atom.pdbx_align\n_chem_comp_atom.pdbx_aromatic_flag\n_chem_comp_atom.pdbx_leaving_atom_flag\n_chem_comp_atom.pdbx_stereo_config\n_chem_comp_atom.model_Cartn_x\n_chem_comp_atom.model_Cartn_y\n_chem_comp_atom.model_Cartn_z\n_chem_comp_atom.pdbx_model_Cartn_x_ideal\n_chem_comp_atom.pdbx_model_Cartn_y_ideal\n_chem_comp_atom.pdbx_model_Cartn_z_ideal\n_chem_comp_atom.pdbx_component_atom_id\n_chem_comp_atom.pdbx_component_comp_id\n_chem_comp_atom.pdbx_ordinal\nCAM C1   C1   C 0 1 N N R 7.555  7.626  14.568 -0.525 0.535  -0.253 C1   CAM 1\nCAM C2   C2   C 0 1 N N N 9.049  7.681  14.338 0.171  -0.172 -1.422 C2   CAM 2\nCAM O    O    O 0 1 N N N 9.869  7.674  15.253 -0.138 -0.138 -2.589 O    CAM 3\nCAM C3   C3   C 0 1 N N N 9.410  7.829  12.905 1.332  -0.943 -0.781 C3   CAM 4\nCAM C4   C4   C 0 1 N N R 7.974  7.821  12.357 1.247  -0.603 0.738  C4   CAM 5\nCAM C5   C5   C 0 1 N N N 7.442  6.364  12.568 1.657  0.897  0.841  C5   CAM 6\nCAM C6   C6   C 0 1 N N N 7.071  6.245  14.075 0.484  1.663  0.186  C6   CAM 7\nCAM C7   C7   C 0 1 N N N 7.205  8.569  13.435 -0.308 -0.491 0.912  C7   CAM 8\nCAM C8   C8   C 0 1 N N N 7.795  10.001 13.656 -1.014 -1.822 0.645  C8   CAM 9\nCAM C9   C9   C 0 1 N N N 5.685  8.565  13.158 -0.694 0.091  2.273  C9   CAM 10\nCAM C10  C10  C 0 1 N N N 7.146  8.136  15.934 -1.967 0.988  -0.492 C10  CAM 11\nCAM H31  1H3  H 0 1 N N N 10.055 8.695  12.629 2.285  -0.589 -1.175 H31  CAM 12\nCAM H32  2H3  H 0 1 N N N 10.121 7.083  12.479 1.221  -2.013 -0.959 H32  CAM 13\nCAM H4   H4   H 0 1 N N N 7.896  8.199  11.310 1.763  -1.288 1.411  H4   CAM 14\nCAM H51  1H5  H 0 1 N N N 6.603  6.096  11.883 1.767  1.191  1.885  H51  CAM 15\nCAM H52  2H5  H 0 1 N N N 8.155  5.578  12.225 2.582  1.078  0.294  H52  CAM 16\nCAM H61  1H6  H 0 1 N N N 7.485  5.360  14.612 0.022  2.338  0.906  H61  CAM 17\nCAM H62  2H6  H 0 1 N N N 6.008  5.990  14.298 0.832  2.217  -0.685 H62  CAM 18\nCAM H81  1H8  H 0 1 N N N 7.537  10.695 12.822 -0.748 -2.537 1.424  H81  CAM 19\nCAM H82  2H8  H 0 1 N N N 7.481  10.419 14.640 -2.093 -1.668 0.647  H82  CAM 20\nCAM H83  3H8  H 0 1 N N N 8.896  9.962  13.823 -0.704 -2.210 -0.324 H83  CAM 21\nCAM H91  1H9  H 0 1 N N N 5.427  9.259  12.324 -0.426 -0.613 3.060  H91  CAM 22\nCAM H92  2H9  H 0 1 N N N 5.305  7.534  12.966 -0.162 1.030  2.430  H92  CAM 23\nCAM H93  3H9  H 0 1 N N N 5.099  8.793  14.078 -1.768 0.274  2.299  H93  CAM 24\nCAM H101 1H10 H 0 0 N N N 6.044  8.095  16.103 -1.988 1.725  -1.295 H101 CAM 25\nCAM H102 2H10 H 0 0 N N N 7.692  7.594  16.740 -2.576 0.128  -0.772 H102 CAM 26\nCAM H103 3H10 H 0 0 N N N 7.537  9.165  16.107 -2.365 1.433  0.419  H103 CAM 27\n#\nloop_\n_chem_comp_bond.comp_id\n_chem_comp_bond.atom_id_1\n_chem_comp_bond.atom_id_2\n_chem_comp_bond.value_order\n_chem_comp_bond.pdbx_aromatic_flag\n_chem_comp_bond.pdbx_stereo_config\n_chem_comp_bond.pdbx_ordinal\nCAM C1  C2   SING N N 1\nCAM C1  C6   SING N N 2\nCAM C1  C7   SING N N 3\nCAM C1  C10  SING N N 4\nCAM C2  O    DOUB N N 5\nCAM C2  C3   SING N N 6\nCAM C3  C4   SING N N 7\nCAM C3  H31  SING N N 8\nCAM C3  H32  SING N N 9\nCAM C4  C5   SING N N 10\nCAM C4  C7   SING N N 11\nCAM C4  H4   SING N N 12\nCAM C5  C6   SING N N 13\nCAM C5  H51  SING N N 14\nCAM C5  H52  SING N N 15\nCAM C6  H61  SING N N 16\nCAM C6  H62  SING N N 17\nCAM C7  C8   SING N N 18\nCAM C7  C9   SING N N 19\nCAM C8  H81  SING N N 20\nCAM C8  H82  SING N N 21\nCAM C8  H83  SING N N 22\nCAM C9  H91  SING N N 23\nCAM C9  H92  SING N N 24\nCAM C9  H93  SING N N 25\nCAM C10 H101 SING N N 26\nCAM C10 H102 SING N N 27\nCAM C10 H103 SING N N 28\n#\nloop_\n_pdbx_chem_comp_descriptor.comp_id\n_pdbx_chem_comp_descriptor.type\n_pdbx_chem_comp_descriptor.program\n_pdbx_chem_comp_descriptor.program_version\n_pdbx_chem_comp_descriptor.descriptor\nCAM SMILES           ACDLabs              10.04 "O=C1CC2CCC1(C)C2(C)C"\nCAM SMILES_CANONICAL CACTVS               3.341 "CC1(C)[C@@H]2CC[C@@]1(C)C(=O)C2"\nCAM SMILES           CACTVS               3.341 "CC1(C)[CH]2CC[C]1(C)C(=O)C2"\nCAM SMILES_CANONICAL "OpenEye OEToolkits" 1.5.0 "CC1([C@@H]2CC[C@]1(C(=O)C2)C)C"\nCAM SMILES           "OpenEye OEToolkits" 1.5.0 "CC1(C2CCC1(C(=O)C2)C)C"\nCAM InChI            InChI                1.03  "InChI=1S/C10H16O/c1-9(2)7-4-5-10(9,3)8(11)6-7/h7H,4-6H2,1-3H3/t7-,10+/m1/s1"\nCAM InChIKey         InChI                1.03  DSSYKIVIOFKYAU-XCBNKYQSSA-N\n#\nloop_\n_pdbx_chem_comp_identifier.comp_id\n_pdbx_chem_comp_identifier.type\n_pdbx_chem_comp_identifier.program\n_pdbx_chem_comp_identifier.program_version\n_pdbx_chem_comp_identifier.identifier\nCAM "SYSTEMATIC NAME" ACDLabs              10.04 "(1R,4R)-1,7,7-trimethylbicyclo[2.2.1]heptan-2-one"\nCAM "SYSTEMATIC NAME" "OpenEye OEToolkits" 1.5.0 "(1R,4R)-1,7,7-trimethylbicyclo[2.2.1]heptan-6-one"\n#\nloop_\n_pdbx_chem_comp_audit.comp_id\n_pdbx_chem_comp_audit.action_type\n_pdbx_chem_comp_audit.date\n_pdbx_chem_comp_audit.processing_site\nCAM "Create component"  1999-07-08 RCSB\nCAM "Modify descriptor" 2011-06-04 RCSB\n#\n'
p2257
sS'ALT_dihedrals'
p2258
g1
(g1114
g3
(lp2259
g1
(g1500
g3
(lp2260
g5
ag366
ag126
ag110
atRp2261
(dp2262
g1121
(lp2263
S''
aS''
aS''
asg1123
I00
sbag1
(g1500
g3
(lp2264
g5
ag39
ag110
ag126
atRp2265
(dp2266
g1121
(lp2267
S''
aS''
aS''
asg1123
I00
sbag1
(g1500
g3
(lp2268
g55
ag39
ag110
ag126
atRp2269
(dp2270
g1121
(lp2271
S''
aS''
aS''
asg1123
I00
sbag1
(g1500
g3
(lp2272
g5
ag158
ag142
ag126
atRp2273
(dp2274
g1121
(lp2275
S''
aS''
aS''
asg1123
I00
sbag1
(g1500
g3
(lp2276
g39
ag5
ag366
ag126
atRp2277
(dp2278
g1121
(lp2279
S''
aS''
aS''
asg1123
I00
sbag1
(g1500
g3
(lp2280
g39
ag110
ag126
ag142
atRp2281
(dp2282
g1121
(lp2283
S''
aS''
aS''
asg1123
I00
sbag1
(g1500
g3
(lp2284
g5
ag366
ag126
ag142
atRp2285
(dp2286
g1121
(lp2287
S''
aS''
aS''
asg1123
I00
sbag1
(g1500
g3
(lp2288
g39
ag5
ag158
ag142
atRp2289
(dp2290
g1121
(lp2291
S''
aS''
aS''
asg1123
I00
sbag1
(g1500
g3
(lp2292
g55
ag39
ag5
ag158
atRp2293
(dp2294
g1121
(lp2295
S''
aS''
aS''
asg1123
I00
sbag1
(g1500
g3
(lp2296
g110
ag39
ag5
ag158
atRp2297
(dp2298
g1121
(lp2299
S''
aS''
aS''
asg1123
I00
sbag1
(g1500
g3
(lp2300
g126
ag366
ag5
ag158
atRp2301
(dp2302
g1121
(lp2303
S''
aS''
aS''
asg1123
I00
sbag1
(g1500
g3
(lp2304
g110
ag126
ag142
ag158
atRp2305
(dp2306
g1121
(lp2307
S''
aS''
aS''
asg1123
I00
sbag1
(g1500
g3
(lp2308
g55
ag39
ag5
ag366
atRp2309
(dp2310
g1121
(lp2311
S''
aS''
aS''
asg1123
I00
sbag1
(g1500
g3
(lp2312
g110
ag39
ag5
ag366
atRp2313
(dp2314
g1121
(lp2315
S''
aS''
aS''
asg1123
I00
sbag1
(g1500
g3
(lp2316
g142
ag158
ag5
ag366
atRp2317
(dp2318
g1121
(lp2319
S''
aS''
aS''
asg1123
I00
sbag1
(g1500
g3
(lp2320
g39
ag110
ag126
ag366
atRp2321
(dp2322
g1121
(lp2323
S''
aS''
aS''
asg1123
I00
sbag1
(g1500
g3
(lp2324
g158
ag142
ag126
ag366
atRp2325
(dp2326
g1121
(lp2327
S''
aS''
aS''
asg1123
I00
sbag1
(g1500
g3
(lp2328
g39
ag5
ag366
ag382
atRp2329
(dp2330
g1121
(lp2331
S''
aS''
aS''
asg1123
I00
sbag1
(g1500
g3
(lp2332
g158
ag5
ag366
ag382
atRp2333
(dp2334
g1121
(lp2335
S''
aS''
aS''
asg1123
I00
sbag1
(g1500
g3
(lp2336
g110
ag126
ag366
ag382
atRp2337
(dp2338
g1121
(lp2339
S''
aS''
aS''
asg1123
I00
sbag1
(g1500
g3
(lp2340
g142
ag126
ag366
ag382
atRp2341
(dp2342
g1121
(lp2343
S''
aS''
aS''
asg1123
I00
sbag1
(g1500
g3
(lp2344
g39
ag5
ag366
ag469
atRp2345
(dp2346
g1121
(lp2347
S''
aS''
aS''
asg1123
I00
sbag1
(g1500
g3
(lp2348
g158
ag5
ag366
ag469
atRp2349
(dp2350
g1121
(lp2351
S''
aS''
aS''
asg1123
I00
sbag1
(g1500
g3
(lp2352
g110
ag126
ag366
ag469
atRp2353
(dp2354
g1121
(lp2355
S''
aS''
aS''
asg1123
I00
sbag1
(g1500
g3
(lp2356
g142
ag126
ag366
ag469
atRp2357
(dp2358
g1121
(lp2359
S''
aS''
aS''
asg1123
I00
sbag1
(g1500
g3
(lp2360
g55
ag39
ag5
ag690
atRp2361
(dp2362
g1121
(lp2363
S''
aS''
aS''
asg1123
I00
sbag1
(g1500
g3
(lp2364
g110
ag39
ag5
ag690
atRp2365
(dp2366
g1121
(lp2367
S''
aS''
aS''
asg1123
I00
sbag1
(g1500
g3
(lp2368
g142
ag158
ag5
ag690
atRp2369
(dp2370
g1121
(lp2371
S''
aS''
aS''
asg1123
I00
sbag1
(g1500
g3
(lp2372
g126
ag366
ag5
ag690
atRp2373
(dp2374
g1121
(lp2375
S''
aS''
aS''
asg1123
I00
sbag1
(g1500
g3
(lp2376
g382
ag366
ag5
ag690
atRp2377
(dp2378
g1121
(lp2379
S''
aS''
aS''
asg1123
I00
sbag1
(g1500
g3
(lp2380
g469
ag366
ag5
ag690
atRp2381
(dp2382
g1121
(lp2383
S''
aS''
aS''
asg1123
I00
sbag1
(g1500
g3
(lp2384
g5
ag39
ag110
ag615
atRp2385
(dp2386
g1121
(lp2387
S''
aS''
aS''
asg1123
I00
sbag1
(g1500
g3
(lp2388
g55
ag39
ag110
ag615
atRp2389
(dp2390
g1121
(lp2391
S''
aS''
aS''
asg1123
I00
sbag1
(g1500
g3
(lp2392
g142
ag126
ag110
ag615
atRp2393
(dp2394
g1121
(lp2395
S''
aS''
aS''
asg1123
I00
sbag1
(g1500
g3
(lp2396
g366
ag126
ag110
ag615
atRp2397
(dp2398
g1121
(lp2399
S''
aS''
aS''
asg1123
I00
sbag1
(g1500
g3
(lp2400
g5
ag39
ag110
ag637
atRp2401
(dp2402
g1121
(lp2403
S''
aS''
aS''
asg1123
I00
sbag1
(g1500
g3
(lp2404
g55
ag39
ag110
ag637
atRp2405
(dp2406
g1121
(lp2407
S''
aS''
aS''
asg1123
I00
sbag1
(g1500
g3
(lp2408
g142
ag126
ag110
ag637
atRp2409
(dp2410
g1121
(lp2411
S''
aS''
aS''
asg1123
I00
sbag1
(g1500
g3
(lp2412
g366
ag126
ag110
ag637
atRp2413
(dp2414
g1121
(lp2415
S''
aS''
aS''
asg1123
I00
sbag1
(g1500
g3
(lp2416
g39
ag110
ag126
ag571
atRp2417
(dp2418
g1121
(lp2419
S''
aS''
aS''
asg1123
I00
sbag1
(g1500
g3
(lp2420
g615
ag110
ag126
ag571
atRp2421
(dp2422
g1121
(lp2423
S''
aS''
aS''
asg1123
I00
sbag1
(g1500
g3
(lp2424
g637
ag110
ag126
ag571
atRp2425
(dp2426
g1121
(lp2427
S''
aS''
aS''
asg1123
I00
sbag1
(g1500
g3
(lp2428
g158
ag142
ag126
ag571
atRp2429
(dp2430
g1121
(lp2431
S''
aS''
aS''
asg1123
I00
sbag1
(g1500
g3
(lp2432
g5
ag366
ag126
ag571
atRp2433
(dp2434
g1121
(lp2435
S''
aS''
aS''
asg1123
I00
sbag1
(g1500
g3
(lp2436
g382
ag366
ag126
ag571
atRp2437
(dp2438
g1121
(lp2439
S''
aS''
aS''
asg1123
I00
sbag1
(g1500
g3
(lp2440
g469
ag366
ag126
ag571
atRp2441
(dp2442
g1121
(lp2443
S''
aS''
aS''
asg1123
I00
sbag1
(g1500
g3
(lp2444
g110
ag126
ag142
ag307
atRp2445
(dp2446
g1121
(lp2447
S''
aS''
aS''
asg1123
I00
sbag1
(g1500
g3
(lp2448
g366
ag126
ag142
ag307
atRp2449
(dp2450
g1121
(lp2451
S''
aS''
aS''
asg1123
I00
sbag1
(g1500
g3
(lp2452
g571
ag126
ag142
ag307
atRp2453
(dp2454
g1121
(lp2455
S''
aS''
aS''
asg1123
I00
sbag1
(g1500
g3
(lp2456
g5
ag158
ag142
ag307
atRp2457
(dp2458
g1121
(lp2459
S''
aS''
aS''
asg1123
I00
sbag1
(g1500
g3
(lp2460
g110
ag126
ag142
ag329
atRp2461
(dp2462
g1121
(lp2463
S''
aS''
aS''
asg1123
I00
sbag1
(g1500
g3
(lp2464
g366
ag126
ag142
ag329
atRp2465
(dp2466
g1121
(lp2467
S''
aS''
aS''
asg1123
I00
sbag1
(g1500
g3
(lp2468
g571
ag126
ag142
ag329
atRp2469
(dp2470
g1121
(lp2471
S''
aS''
aS''
asg1123
I00
sbag1
(g1500
g3
(lp2472
g5
ag158
ag142
ag329
atRp2473
(dp2474
g1121
(lp2475
S''
aS''
aS''
asg1123
I00
sbag1
(g1500
g3
(lp2476
g39
ag5
ag158
ag174
atRp2477
(dp2478
g1121
(lp2479
S''
aS''
aS''
asg1123
I00
sbag1
(g1500
g3
(lp2480
g366
ag5
ag158
ag174
atRp2481
(dp2482
g1121
(lp2483
S''
aS''
aS''
asg1123
I00
sbag1
(g1500
g3
(lp2484
g690
ag5
ag158
ag174
atRp2485
(dp2486
g1121
(lp2487
S''
aS''
aS''
asg1123
I00
sbag1
(g1500
g3
(lp2488
g126
ag142
ag158
ag174
atRp2489
(dp2490
g1121
(lp2491
S''
aS''
aS''
asg1123
I00
sbag1
(g1500
g3
(lp2492
g307
ag142
ag158
ag174
atRp2493
(dp2494
g1121
(lp2495
S''
aS''
aS''
asg1123
I00
sbag1
(g1500
g3
(lp2496
g329
ag142
ag158
ag174
atRp2497
(dp2498
g1121
(lp2499
S''
aS''
aS''
asg1123
I00
sbag1
(g1500
g3
(lp2500
g39
ag5
ag158
ag196
atRp2501
(dp2502
g1121
(lp2503
S''
aS''
aS''
asg1123
I00
sbag1
(g1500
g3
(lp2504
g366
ag5
ag158
ag196
atRp2505
(dp2506
g1121
(lp2507
S''
aS''
aS''
asg1123
I00
sbag1
(g1500
g3
(lp2508
g690
ag5
ag158
ag196
atRp2509
(dp2510
g1121
(lp2511
S''
aS''
aS''
asg1123
I00
sbag1
(g1500
g3
(lp2512
g126
ag142
ag158
ag196
atRp2513
(dp2514
g1121
(lp2515
S''
aS''
aS''
asg1123
I00
sbag1
(g1500
g3
(lp2516
g307
ag142
ag158
ag196
atRp2517
(dp2518
g1121
(lp2519
S''
aS''
aS''
asg1123
I00
sbag1
(g1500
g3
(lp2520
g329
ag142
ag158
ag196
atRp2521
(dp2522
g1121
(lp2523
S''
aS''
aS''
asg1123
I00
sbag1
(g1500
g3
(lp2524
g5
ag366
ag382
ag398
atRp2525
(dp2526
g1121
(lp2527
S''
aS''
aS''
asg1123
I00
sbag1
(g1500
g3
(lp2528
g126
ag366
ag382
ag398
atRp2529
(dp2530
g1121
(lp2531
S''
aS''
aS''
asg1123
I00
sbag1
(g1500
g3
(lp2532
g469
ag366
ag382
ag398
atRp2533
(dp2534
g1121
(lp2535
S''
aS''
aS''
asg1123
I00
sbag1
(g1500
g3
(lp2536
g5
ag366
ag382
ag420
atRp2537
(dp2538
g1121
(lp2539
S''
aS''
aS''
asg1123
I00
sbag1
(g1500
g3
(lp2540
g126
ag366
ag382
ag420
atRp2541
(dp2542
g1121
(lp2543
S''
aS''
aS''
asg1123
I00
sbag1
(g1500
g3
(lp2544
g469
ag366
ag382
ag420
atRp2545
(dp2546
g1121
(lp2547
S''
aS''
aS''
asg1123
I00
sbag1
(g1500
g3
(lp2548
g5
ag366
ag382
ag441
atRp2549
(dp2550
g1121
(lp2551
S''
aS''
aS''
asg1123
I00
sbag1
(g1500
g3
(lp2552
g126
ag366
ag382
ag441
atRp2553
(dp2554
g1121
(lp2555
S''
aS''
aS''
asg1123
I00
sbag1
(g1500
g3
(lp2556
g469
ag366
ag382
ag441
atRp2557
(dp2558
g1121
(lp2559
S''
aS''
aS''
asg1123
I00
sbag1
(g1500
g3
(lp2560
g5
ag366
ag469
ag485
atRp2561
(dp2562
g1121
(lp2563
S''
aS''
aS''
asg1123
I00
sbag1
(g1500
g3
(lp2564
g126
ag366
ag469
ag485
atRp2565
(dp2566
g1121
(lp2567
S''
aS''
aS''
asg1123
I00
sbag1
(g1500
g3
(lp2568
g382
ag366
ag469
ag485
atRp2569
(dp2570
g1121
(lp2571
S''
aS''
aS''
asg1123
I00
sbag1
(g1500
g3
(lp2572
g5
ag366
ag469
ag506
atRp2573
(dp2574
g1121
(lp2575
S''
aS''
aS''
asg1123
I00
sbag1
(g1500
g3
(lp2576
g126
ag366
ag469
ag506
atRp2577
(dp2578
g1121
(lp2579
S''
aS''
aS''
asg1123
I00
sbag1
(g1500
g3
(lp2580
g382
ag366
ag469
ag506
atRp2581
(dp2582
g1121
(lp2583
S''
aS''
aS''
asg1123
I00
sbag1
(g1500
g3
(lp2584
g5
ag366
ag469
ag527
atRp2585
(dp2586
g1121
(lp2587
S''
aS''
aS''
asg1123
I00
sbag1
(g1500
g3
(lp2588
g126
ag366
ag469
ag527
atRp2589
(dp2590
g1121
(lp2591
S''
aS''
aS''
asg1123
I00
sbag1
(g1500
g3
(lp2592
g382
ag366
ag469
ag527
atRp2593
(dp2594
g1121
(lp2595
S''
aS''
aS''
asg1123
I00
sbag1
(g1500
g3
(lp2596
g39
ag5
ag690
ag706
atRp2597
(dp2598
g1121
(lp2599
S''
aS''
aS''
asg1123
I00
sbag1
(g1500
g3
(lp2600
g158
ag5
ag690
ag706
atRp2601
(dp2602
g1121
(lp2603
S''
aS''
aS''
asg1123
I00
sbag1
(g1500
g3
(lp2604
g366
ag5
ag690
ag706
atRp2605
(dp2606
g1121
(lp2607
S''
aS''
aS''
asg1123
I00
sbag1
(g1500
g3
(lp2608
g39
ag5
ag690
ag727
atRp2609
(dp2610
g1121
(lp2611
S''
aS''
aS''
asg1123
I00
sbag1
(g1500
g3
(lp2612
g158
ag5
ag690
ag727
atRp2613
(dp2614
g1121
(lp2615
S''
aS''
aS''
asg1123
I00
sbag1
(g1500
g3
(lp2616
g366
ag5
ag690
ag727
atRp2617
(dp2618
g1121
(lp2619
S''
aS''
aS''
asg1123
I00
sbag1
(g1500
g3
(lp2620
g39
ag5
ag690
ag748
atRp2621
(dp2622
g1121
(lp2623
S''
aS''
aS''
asg1123
I00
sbag1
(g1500
g3
(lp2624
g158
ag5
ag690
ag748
atRp2625
(dp2626
g1121
(lp2627
S''
aS''
aS''
asg1123
I00
sbag1
(g1500
g3
(lp2628
g366
ag5
ag690
ag748
atRp2629
(dp2630
g1121
(lp2631
S''
aS''
aS''
asg1123
I00
sbatRp2632
sS'ALT_angles'
p2633
g1
(g1114
g3
(lp2634
g1
(g1267
g3
(lp2635
g5
ag39
ag55
atRp2636
(dp2637
g1121
(lp2638
S''
aS''
asg1123
I00
sbag1
(g1267
g3
(lp2639
g5
ag39
ag110
atRp2640
(dp2641
g1121
(lp2642
S''
aS''
asg1123
I00
sbag1
(g1267
g3
(lp2643
g55
ag39
ag110
atRp2644
(dp2645
g1121
(lp2646
S''
aS''
asg1123
I00
sbag1
(g1267
g3
(lp2647
g39
ag110
ag126
atRp2648
(dp2649
g1121
(lp2650
S''
aS''
asg1123
I00
sbag1
(g1267
g3
(lp2651
g5
ag366
ag126
atRp2652
(dp2653
g1121
(lp2654
S''
aS''
asg1123
I00
sbag1
(g1267
g3
(lp2655
g110
ag126
ag142
atRp2656
(dp2657
g1121
(lp2658
S''
aS''
asg1123
I00
sbag1
(g1267
g3
(lp2659
g5
ag158
ag142
atRp2660
(dp2661
g1121
(lp2662
S''
aS''
asg1123
I00
sbag1
(g1267
g3
(lp2663
g39
ag5
ag158
atRp2664
(dp2665
g1121
(lp2666
S''
aS''
asg1123
I00
sbag1
(g1267
g3
(lp2667
g126
ag142
ag158
atRp2668
(dp2669
g1121
(lp2670
S''
aS''
asg1123
I00
sbag1
(g1267
g3
(lp2671
g39
ag5
ag366
atRp2672
(dp2673
g1121
(lp2674
S''
aS''
asg1123
I00
sbag1
(g1267
g3
(lp2675
g158
ag5
ag366
atRp2676
(dp2677
g1121
(lp2678
S''
aS''
asg1123
I00
sbag1
(g1267
g3
(lp2679
g110
ag126
ag366
atRp2680
(dp2681
g1121
(lp2682
S''
aS''
asg1123
I00
sbag1
(g1267
g3
(lp2683
g142
ag126
ag366
atRp2684
(dp2685
g1121
(lp2686
S''
aS''
asg1123
I00
sbag1
(g1267
g3
(lp2687
g5
ag366
ag382
atRp2688
(dp2689
g1121
(lp2690
S''
aS''
asg1123
I00
sbag1
(g1267
g3
(lp2691
g126
ag366
ag382
atRp2692
(dp2693
g1121
(lp2694
S''
aS''
asg1123
I00
sbag1
(g1267
g3
(lp2695
g5
ag366
ag469
atRp2696
(dp2697
g1121
(lp2698
S''
aS''
asg1123
I00
sbag1
(g1267
g3
(lp2699
g126
ag366
ag469
atRp2700
(dp2701
g1121
(lp2702
S''
aS''
asg1123
I00
sbag1
(g1267
g3
(lp2703
g382
ag366
ag469
atRp2704
(dp2705
g1121
(lp2706
S''
aS''
asg1123
I00
sbag1
(g1267
g3
(lp2707
g39
ag5
ag690
atRp2708
(dp2709
g1121
(lp2710
S''
aS''
asg1123
I00
sbag1
(g1267
g3
(lp2711
g158
ag5
ag690
atRp2712
(dp2713
g1121
(lp2714
S''
aS''
asg1123
I00
sbag1
(g1267
g3
(lp2715
g366
ag5
ag690
atRp2716
(dp2717
g1121
(lp2718
S''
aS''
asg1123
I00
sbag1
(g1267
g3
(lp2719
g39
ag110
ag615
atRp2720
(dp2721
g1121
(lp2722
S''
aS''
asg1123
I00
sbag1
(g1267
g3
(lp2723
g126
ag110
ag615
atRp2724
(dp2725
g1121
(lp2726
S''
aS''
asg1123
I00
sbag1
(g1267
g3
(lp2727
g39
ag110
ag637
atRp2728
(dp2729
g1121
(lp2730
S''
aS''
asg1123
I00
sbag1
(g1267
g3
(lp2731
g126
ag110
ag637
atRp2732
(dp2733
g1121
(lp2734
S''
aS''
asg1123
I00
sbag1
(g1267
g3
(lp2735
g615
ag110
ag637
atRp2736
(dp2737
g1121
(lp2738
S''
aS''
asg1123
I00
sbag1
(g1267
g3
(lp2739
g110
ag126
ag571
atRp2740
(dp2741
g1121
(lp2742
S''
aS''
asg1123
I00
sbag1
(g1267
g3
(lp2743
g142
ag126
ag571
atRp2744
(dp2745
g1121
(lp2746
S''
aS''
asg1123
I00
sbag1
(g1267
g3
(lp2747
g366
ag126
ag571
atRp2748
(dp2749
g1121
(lp2750
S''
aS''
asg1123
I00
sbag1
(g1267
g3
(lp2751
g126
ag142
ag307
atRp2752
(dp2753
g1121
(lp2754
S''
aS''
asg1123
I00
sbag1
(g1267
g3
(lp2755
g158
ag142
ag307
atRp2756
(dp2757
g1121
(lp2758
S''
aS''
asg1123
I00
sbag1
(g1267
g3
(lp2759
g126
ag142
ag329
atRp2760
(dp2761
g1121
(lp2762
S''
aS''
asg1123
I00
sbag1
(g1267
g3
(lp2763
g158
ag142
ag329
atRp2764
(dp2765
g1121
(lp2766
S''
aS''
asg1123
I00
sbag1
(g1267
g3
(lp2767
g307
ag142
ag329
atRp2768
(dp2769
g1121
(lp2770
S''
aS''
asg1123
I00
sbag1
(g1267
g3
(lp2771
g5
ag158
ag174
atRp2772
(dp2773
g1121
(lp2774
S''
aS''
asg1123
I00
sbag1
(g1267
g3
(lp2775
g142
ag158
ag174
atRp2776
(dp2777
g1121
(lp2778
S''
aS''
asg1123
I00
sbag1
(g1267
g3
(lp2779
g5
ag158
ag196
atRp2780
(dp2781
g1121
(lp2782
S''
aS''
asg1123
I00
sbag1
(g1267
g3
(lp2783
g142
ag158
ag196
atRp2784
(dp2785
g1121
(lp2786
S''
aS''
asg1123
I00
sbag1
(g1267
g3
(lp2787
g174
ag158
ag196
atRp2788
(dp2789
g1121
(lp2790
S''
aS''
asg1123
I00
sbag1
(g1267
g3
(lp2791
g366
ag382
ag398
atRp2792
(dp2793
g1121
(lp2794
S''
aS''
asg1123
I00
sbag1
(g1267
g3
(lp2795
g366
ag382
ag420
atRp2796
(dp2797
g1121
(lp2798
S''
aS''
asg1123
I00
sbag1
(g1267
g3
(lp2799
g398
ag382
ag420
atRp2800
(dp2801
g1121
(lp2802
S''
aS''
asg1123
I00
sbag1
(g1267
g3
(lp2803
g366
ag382
ag441
atRp2804
(dp2805
g1121
(lp2806
S''
aS''
asg1123
I00
sbag1
(g1267
g3
(lp2807
g398
ag382
ag441
atRp2808
(dp2809
g1121
(lp2810
S''
aS''
asg1123
I00
sbag1
(g1267
g3
(lp2811
g420
ag382
ag441
atRp2812
(dp2813
g1121
(lp2814
S''
aS''
asg1123
I00
sbag1
(g1267
g3
(lp2815
g366
ag469
ag485
atRp2816
(dp2817
g1121
(lp2818
S''
aS''
asg1123
I00
sbag1
(g1267
g3
(lp2819
g366
ag469
ag506
atRp2820
(dp2821
g1121
(lp2822
S''
aS''
asg1123
I00
sbag1
(g1267
g3
(lp2823
g485
ag469
ag506
atRp2824
(dp2825
g1121
(lp2826
S''
aS''
asg1123
I00
sbag1
(g1267
g3
(lp2827
g366
ag469
ag527
atRp2828
(dp2829
g1121
(lp2830
S''
aS''
asg1123
I00
sbag1
(g1267
g3
(lp2831
g485
ag469
ag527
atRp2832
(dp2833
g1121
(lp2834
S''
aS''
asg1123
I00
sbag1
(g1267
g3
(lp2835
g506
ag469
ag527
atRp2836
(dp2837
g1121
(lp2838
S''
aS''
asg1123
I00
sbag1
(g1267
g3
(lp2839
g5
ag690
ag706
atRp2840
(dp2841
g1121
(lp2842
S''
aS''
asg1123
I00
sbag1
(g1267
g3
(lp2843
g5
ag690
ag727
atRp2844
(dp2845
g1121
(lp2846
S''
aS''
asg1123
I00
sbag1
(g1267
g3
(lp2847
g706
ag690
ag727
atRp2848
(dp2849
g1121
(lp2850
S''
aS''
asg1123
I00
sbag1
(g1267
g3
(lp2851
g5
ag690
ag748
atRp2852
(dp2853
g1121
(lp2854
S''
aS''
asg1123
I00
sbag1
(g1267
g3
(lp2855
g706
ag690
ag748
atRp2856
(dp2857
g1121
(lp2858
S''
aS''
asg1123
I00
sbag1
(g1267
g3
(lp2859
g727
ag690
ag748
atRp2860
(dp2861
g1121
(lp2862
S''
aS''
asg1123
I00
sbatRp2863
sS'temp_cif'
p2864
S'/tmp/tmpSLvQy8'
p2865
sg1885
g1
(g1886
g3
(lp2866
g2112
ag2116
ag2120
ag2124
ag2128
ag2132
ag1908
ag1913
ag1
(g1888
g3
(lp2867
g55
ag39
aF1.1841753494143599
ag5
aF119.99854876521604
ag158
aF-145.89805055447943
atRp2868
(dp2869
g1910
I00
sg1894
I01
sg1898
I4
sg1892
I2
sg1893
I6
sg1895
(lp2870
I00
aI00
aI00
asg1897
I00
sg1111
F1.1841753494143599
sbag1999
ag1
(g1888
g3
(lp2871
g382
ag366
aF1.5277120428516784
ag5
aF113.04085963256408
ag39
aF-60.502379372794906
atRp2872
(dp2873
g1892
I2
sg1893
I6
sg1894
I01
sg1895
(lp2874
I00
aI00
aI00
asg1897
I00
sg1898
I4
sg1111
F1.5277120428516784
sbag1
(g1888
g3
(lp2875
g469
ag366
aF1.528822824500786
ag5
aF113.05200685940041
ag39
aF167.85294840780398
atRp2876
(dp2877
g1892
I2
sg1893
I6
sg1894
I01
sg1895
(lp2878
I00
aI00
aI00
asg1897
I00
sg1898
I4
sg1111
F1.528822824500786
sbag1
(g1888
g3
(lp2879
g615
ag110
aF1.0833090000000001
ag39
aF109.36106197458497
ag5
aF120.52231250041004
atRp2880
(dp2881
g1892
I2
sg1893
I6
sg1894
I01
sg1895
(lp2882
I00
aI00
aI00
asg1897
I00
sg1898
I4
sg1111
F1.0833090000000001
sbag1
(g1888
g3
(lp2883
g637
ag110
aF1.0833090000000001
ag39
aF109.35418264460907
ag5
aF-119.76318222203719
atRp2884
(dp2885
g1892
I2
sg1893
I6
sg1894
I01
sg1895
(lp2886
I00
aI00
aI00
asg1897
I00
sg1898
I4
sg1111
F1.0833090000000001
sbag1
(g1888
g3
(lp2887
g307
ag142
aF1.0833090000000001
ag126
aF109.33386130039524
ag110
aF-66.087015165739132
atRp2888
(dp2889
g1892
I2
sg1893
I6
sg1894
I01
sg1895
(lp2890
I00
aI00
aI00
asg1897
I00
sg1898
I4
sg1111
F1.0833090000000001
sbag1
(g1888
g3
(lp2891
g329
ag142
aF1.0833090000000001
ag126
aF109.33837720657894
ag110
aF174.25079936052708
atRp2892
(dp2893
g1892
I2
sg1893
I6
sg1894
I01
sg1895
(lp2894
I00
aI00
aI00
asg1897
I00
sg1898
I4
sg1111
F1.0833090000000001
sbag1
(g1888
g3
(lp2895
g174
ag158
aF1.0833090000000001
ag5
aF109.36296948630874
ag39
aF68.560219606964139
atRp2896
(dp2897
g1892
I2
sg1893
I6
sg1894
I01
sg1895
(lp2898
I00
aI00
aI00
asg1897
I00
sg1898
I4
sg1111
F1.0833090000000001
sbag1
(g1888
g3
(lp2899
g196
ag158
aF1.0833090000000001
ag5
aF109.36996297015041
ag39
aF-171.70488254403097
atRp2900
(dp2901
g1892
I2
sg1893
I6
sg1894
I01
sg1895
(lp2902
I00
aI00
aI00
asg1897
I00
sg1898
I4
sg1111
F1.0833090000000001
sbag1
(g1888
g3
(lp2903
g398
ag382
aF1.0833090000000001
ag366
aF109.47981018875508
ag5
aF19.829948644390402
atRp2904
(dp2905
g1892
I2
sg1893
I6
sg1894
I01
sg1895
(lp2906
I00
aI00
aI00
asg1897
I00
sg1898
I4
sg1111
F1.0833090000000001
sbag1
(g1888
g3
(lp2907
g420
ag382
aF1.0833090000000001
ag366
aF109.47282379528343
ag5
aF-100.17015678489309
atRp2908
(dp2909
g1892
I2
sg1893
I6
sg1894
I01
sg1895
(lp2910
I00
aI00
aI00
asg1897
I00
sg1898
I4
sg1111
F1.0833090000000001
sbag1
(g1888
g3
(lp2911
g441
ag382
aF1.0833090000000001
ag366
aF109.47380528334124
ag5
aF139.83434413876316
atRp2912
(dp2913
g1892
I2
sg1893
I6
sg1894
I01
sg1895
(lp2914
I00
aI00
aI00
asg1897
I00
sg1898
I4
sg1111
F1.0833090000000001
sbag1
(g1888
g3
(lp2915
g485
ag469
aF1.0833090000000001
ag366
aF109.47706705914453
ag5
aF-109.39394512130524
atRp2916
(dp2917
g1892
I2
sg1893
I6
sg1894
I01
sg1895
(lp2918
I00
aI00
aI00
asg1897
I00
sg1898
I4
sg1111
F1.0833090000000001
sbag1
(g1888
g3
(lp2919
g506
ag469
aF1.0833090000000001
ag366
aF109.47150480984558
ag5
aF130.61138138119233
atRp2920
(dp2921
g1892
I2
sg1893
I6
sg1894
I01
sg1895
(lp2922
I00
aI00
aI00
asg1897
I00
sg1898
I4
sg1111
F1.0833090000000001
sbag1
(g1888
g3
(lp2923
g527
ag469
aF1.0833090000000001
ag366
aF109.47868190949856
ag5
aF10.613270599465913
atRp2924
(dp2925
g1892
I2
sg1893
I6
sg1894
I01
sg1895
(lp2926
I00
aI00
aI00
asg1897
I00
sg1898
I4
sg1111
F1.0833090000000001
sbag1
(g1888
g3
(lp2927
g706
ag690
aF1.0833090000000001
ag5
aF109.47382042339443
ag39
aF47.141214861907834
atRp2928
(dp2929
g1892
I2
sg1893
I6
sg1894
I01
sg1895
(lp2930
I00
aI00
aI00
asg1897
I00
sg1898
I4
sg1111
F1.0833090000000001
sbag1
(g1888
g3
(lp2931
g727
ag690
aF1.0833090000000001
ag5
aF109.4712493498596
ag39
aF-72.858915480212602
atRp2932
(dp2933
g1892
I2
sg1893
I6
sg1894
I01
sg1895
(lp2934
I00
aI00
aI00
asg1897
I00
sg1898
I4
sg1111
F1.0833090000000001
sbag1
(g1888
g3
(lp2935
g748
ag690
aF1.0833090000000001
ag5
aF109.47439023426794
ag39
aF167.14327463009903
atRp2936
(dp2937
g1892
I2
sg1893
I6
sg1894
I01
sg1895
(lp2938
I00
aI00
aI00
asg1897
I00
sg1898
I4
sg1111
F1.0833090000000001
sbatRp2939
(dp2940
g937
I01
sg938
g1874
sg1112
g794
sg1113
g1208
sg972
I01
sg1918
(lp2941
g5
ag39
ag110
ag126
ag142
ag158
ag366
ag690
ag55
ag571
ag382
ag469
ag615
ag637
ag307
ag329
ag174
ag196
ag398
ag420
ag441
ag485
ag506
ag527
ag706
ag727
ag748
asg1895
(dp2942
I8
(lp2943
I6
asI10
(lp2944
I6
asI11
(lp2945
I6
asI12
(lp2946
I6
asI13
(lp2947
I6
asI14
(lp2948
I6
asI15
(lp2949
I6
asI16
(lp2950
I6
asI17
(lp2951
I6
asI18
(lp2952
I6
asI19
(lp2953
I6
asI20
(lp2954
I6
asI21
(lp2955
I6
asI22
(lp2956
I6
asI23
(lp2957
I6
asI24
(lp2958
I6
asI25
(lp2959
I6
asI26
(lp2960
I6
assg1920
g1
(g986
g987
(dp2961
I1
(F0
F0
F0
tp2962
sI2
(F1.600000000000001
F0
F0
tp2963
sg993
g994
sI4
(F2.1971403237292377
F0
F1.4843932881068085
tp2964
sI5
(F1.5790250627418212
F-1.1700881435589303
F2.3837415301339302
tp2965
sI6
(F-0.020612237110542164
F-1.1415894798338491
F2.4024052673514902
tp2966
sI7
(F-0.59222359383176915
F-1.1714364596885158
F0.91488132335370254
tp2967
sg2039
g2040
sI11
(F-0.48831540918887884
F-0.20995613753841808
F-1.4316355336937703
tp2968
sg2041
g2042
sg1043
g1044
sg1046
g1047
sg2043
g2044
sI3
(F1.9973782776871409
F-0.15511048894723736
F-1.105135731523486
tp2969
sg1008
g1009
sg1012
g1013
sg2052
g2053
sg1056
g1057
sg2056
g2057
sg2058
g2059
sg2060
g2061
sg1039
g1040
sg998
g999
sI8
(F-0.53774037383613138
F1.3372946466708093
F0.5045712419551599
tp2970
sg2068
g2069
sg2072
g2073
sg1033
g1034
s(I3
I2
tp2971
(lp2972
F1.5
aF100
asg2066
g2067
sg1049
g1050
sI14
(F1.9281709039898676
F-1.0642960503578429
F3.4037727081066071
tp2973
sg2045
g2046
sg2047
g2048
sg995
g996
sg2050
g2051
sg2054
g2055
sg1003
g1004
sg1053
g1054
sg2062
g2063
sg1006
g1007
sg1010
g1011
sg2070
g2071
sg2074
g2075
stRp2974
(dp2975
g1016
(dp2976
I1
I0
sI2
I1
sI3
I2
sI4
I3
sI5
I4
sI6
I5
sI7
I6
sI8
I7
sI11
I8
sI14
I9
ssg1018
(lp2977
sg1020
(lp2978
F50
aF50
asg1022
g2080
sg1024
Nsg1025
(lp2979
g1027
ag1065
asg1031
I00
sbsg1265
g1497
sg1921
I01
sg1498
g1873
sbsS'small_planar_class'
p2980
g1
(g2012
g3
(lp2981
(lp2982
g39
ag55
ag110
ag5
aa(lp2983
g39
ag55
ag110
ag5
aatRp2984
(dp2985
g1920
g1
(g986
g987
(dtRp2986
(dp2987
g1024
Nsg1016
(dp2988
sg1031
I00
sg1018
(lp2989
sg1022
(dp2990
sbsg2020
(lp2991
I0
aI0
aI0
aI0
asbsS'all_rings'
p2992
(lp2993
(lp2994
S'1'
aS'2'
aS'4'
aS'5'
aS'8'
aa(lp2995
S'1'
aS'2'
aS'4'
aS'5'
aS'6'
aS'7'
aa(lp2996
S'1'
aS'5'
aS'6'
aS'7'
aS'8'
aasS'bonds_md5'
p2997
S'646423f2c66b268e7577f56572b7feca'
p2998
sg1920
g1
(g986
g987
(dp2999
I1
(F8.3800968430492553
F-3.0468856371676956
F1.0543312318544626
tp3000
sI2
(F7.7722633879503649
F-3.5510943740051215
F2.1920548219045091
tp3001
sg993
g994
sI4
(F8.5406029297717403
F-3.893311409851782
F3.1550375632541701
tp3002
sI5
(F9.9056487768517218
F-3.6503262209251042
F2.8032326581417526
tp3003
sI6
(F10.273507550080428
F-4.3020385144562612
F1.5830215628828217
tp3004
sI7
(F9.3791282664270188
F-3.9400719906973687
F0.54832652509742119
tp3005
sI8
(F9.4917599900811656
F-2.1537801228504128
F1.9751356198270735
tp3006
sI9
(F8.823546542358681
F-1.1290388970722278
F2.8901767633542379
tp3007
sI10
(F10.644172362400166
F-1.5918522095791285
F1.1423799695146697
tp3008
sI11
(F7.2838258763278905
F-2.0806843315108634
F-0.2147777962489871
tp3009
sI12
(F79.817101957815055
F65.178394632229072
F9.375606882606391
tp3010
sI13
(F-58.492465947819959
F-58.578038253463696
F-75.971000817216506
tp3011
sI14
(F37.208356351986538
F-83.434129365060699
F60.705734366042222
tp3012
sI15
(F-71.567364934707044
F-92.63907482752542
F-84.720596262464099
tp3013
sI16
(F-20.164094199812659
F20.137311413764536
F-50.641928109884603
tp3014
sI17
(F-14.696382133425416
F10.65156041290672
F-35.984557763458199
tp3015
sI18
(F-57.00749216711543
F-7.4895506594727035
F-46.190404610567342
tp3016
sI3
(F6.626718431793476
F-3.3325801429786943
F2.397601756746802
tp3017
sI20
(F-16.994797445676486
F52.255706580362528
F76.731526542109577
tp3018
sI21
(F104.80889473642824
F-82.644877236378491
F86.53682822869915
tp3019
sI22
(F76.781884608035909
F-32.865658519391296
F77.576427218806742
tp3020
sI23
(F-4.0803002232098038
F2.3002197415565586
F65.762384623382744
tp3021
sI24
(F-39.346071335476289
F81.723656054440511
F55.852309095828026
tp3022
sI25
(F57.460566040811059
F24.856260528514692
F86.206662782159796
tp3023
sI26
(F65.67001870186489
F23.246011678739386
F27.312065344699519
tp3024
sg1012
g1013
sg1056
g1057
s(I9
I8
I1
tp3025
(lp3026
F109.47122063449069
aF1
as(I16
I6
I15
tp3027
(lp3028
F109.47122063449069
aF1
asg2060
g2061
s(I9
I21
tp3029
(lp3030
F1.0833090000000001
aF100
as(I8
I10
tp3031
(lp3032
F1.527126
aF100
as(I4
I13
tp3033
(lp3034
F1.0833090000000001
aF100
as(I11
I27
tp3035
(lp3036
F1.0833090000000001
aF100
as(I9
I8
I5
tp3037
(lp3038
F109.47122063449069
aF1
as(I6
I15
tp3039
(lp3040
F1.0833090000000001
aF100
as(I13
I4
I2
tp3041
(lp3042
F109.47122063449069
aF1
as(I12
I4
I5
tp3043
(lp3044
F109.47122063449069
aF1
as(I18
I7
I17
tp3045
(lp3046
F109.47122063449069
aF1
as(I3
I2
I1
tp3047
(lp3048
F120
aF1.5
asg2066
g2067
s(I16
I6
I5
tp3049
(lp3050
F109.47122063449069
aF1
asg2041
g2042
s(I10
I24
tp3051
(lp3052
F1.0833090000000001
aF100
asg1049
g1050
s(I2
I3
tp3053
(lp3054
F1.184607
aF100
as(I12
I4
I2
tp3055
(lp3056
F109.47122063449069
aF1
asg2045
(I120
F10
tp3057
s(I10
I23
tp3058
(lp3059
F1.0833090000000001
aF100
as(I13
I4
I5
tp3060
(lp3061
F109.47122063449069
aF1
asg1033
g1034
sg1046
g1047
s(I27
I11
I1
tp3062
(lp3063
F109.47122063449069
aF1
as(I20
I9
I19
tp3064
(lp3065
F109.47122063449069
aF1
as(I10
I22
tp3066
(lp3067
F1.0833090000000001
aF100
as(I21
I9
I8
tp3068
(lp3069
F109.47122063449069
aF1
asg2043
g2044
s(I27
I11
I25
tp3070
(lp3071
F109.47122063449069
aF1
as(I19
I9
I8
tp3072
(lp3073
F109.47122063449069
aF1
asg1006
g1007
sI19
(F-82.490514934325176
F90.82835102802099
F-42.292819402084376
tp3074
sg1010
g1011
s(I21
I9
I19
tp3075
(lp3076
F109.47122063449069
aF1
as(I9
I19
tp3077
(lp3078
F1.0833090000000001
aF100
as(I6
I16
tp3079
(lp3080
F1.0833090000000001
aF100
as(I26
I11
I25
tp3081
(lp3082
F109.47122063449069
aF1
as(I16
I6
I7
tp3083
(lp3084
F109.47122063449069
aF1
asg1043
g1044
sg2039
g2040
s(I10
I8
I9
tp3085
(lp3086
F109.47122063449069
aF1
as(I17
I7
I6
tp3087
(lp3088
F109.47122063449069
aF1
as(I8
I9
tp3089
(lp3090
F1.527126
aF100
as(I4
I12
tp3091
(lp3092
F1.0833090000000001
aF100
asg1008
g1009
s(I5
I8
I1
tp3093
(lp3094
F109.47122063449069
aF1
as(I22
I10
I8
tp3095
(lp3096
F109.47122063449069
aF1
asI27
(F97.926618970159865
F-19.961876916939911
F-91.497216597699335
tp3097
s(I10
I8
I1
tp3098
(lp3099
F109.47122063449069
aF1
asg1039
g1040
sg998
g999
s(I10
I8
I5
tp3100
(lp3101
F109.47122063449069
aF1
as(I18
I7
I1
tp3102
(lp3103
F109.47122063449069
aF1
asg2068
g2069
s(I27
I11
I26
tp3104
(lp3105
F109.47122063449069
aF1
as(I24
I10
I8
tp3106
(lp3107
F109.47122063449069
aF1
asg2056
g2057
s(I23
I10
I8
tp3108
(lp3109
F109.47122063449069
aF1
as(I9
I20
tp3110
(lp3111
F1.0833090000000001
aF100
as(I25
I11
I1
tp3112
(lp3113
F109.47122063449069
aF1
as(I7
I18
tp3114
(lp3115
F1.0833090000000001
aF100
as(I23
I10
I22
tp3116
(lp3117
F109.47122063449069
aF1
asg2058
g2059
s(I18
I7
I6
tp3118
(lp3119
F109.47122063449069
aF1
as(I17
I7
I1
tp3120
(lp3121
F109.47122063449069
aF1
asg995
g996
sg2050
g2051
s(I26
I11
I1
tp3122
(lp3123
F109.47122063449069
aF1
asg1003
g1004
s(I24
I10
I22
tp3124
(lp3125
F109.47122063449069
aF1
asg1053
g1054
s(I15
I6
I7
tp3126
(lp3127
F109.47122063449069
aF1
as(I13
I4
I12
tp3128
(lp3129
F109.47122063449069
aF1
as(I11
I26
tp3130
(lp3131
F1.0833090000000001
aF100
asg2070
g2071
s(I21
I9
I20
tp3132
(lp3133
F109.47122063449069
aF1
as(I15
I6
I5
tp3134
(lp3135
F109.47122063449069
aF1
as(I24
I10
I23
tp3136
(lp3137
F109.47122063449069
aF1
as(I7
I17
tp3138
(lp3139
F1.0833090000000001
aF100
as(I11
I25
tp3140
(lp3141
F1.0833090000000001
aF100
as(I4
I2
I3
tp3142
(lp3143
F120
aF1.5
as(I20
I9
I8
tp3144
(lp3145
F109.47122063449069
aF1
astRp3146
(dp3147
g1018
(lp3148
sg1022
(dp3149
sg1020
(lp3150
F50
aF50
asS'plane_weights'
p3151
(lp3152
F0.02
asg1016
(dp3153
I1
I0
sI2
I1
sI3
I2
sI4
I3
sI5
I4
sI6
I5
sI7
I6
sI8
I7
sI9
I8
sI10
I9
sI11
I10
sI12
I11
sI13
I12
sI14
I13
sI15
I14
sI16
I15
sI17
I16
sI18
I17
sI19
I18
sI20
I19
sI21
I20
sI22
I21
sI23
I22
sI24
I23
sI25
I24
sI26
I25
sI27
I26
ssS'planes'
p3154
(lp3155
(lp3156
g39
ag55
ag110
ag5
aasg1024
Nsg1025
(lp3157
g1027
ag1065
asg1031
I00
sbsg3154
(lp3158
sS'cctbx_energy_parameters'
p3159
(lp3160
F2
aF0.66666666666666663
aF1
aI1
a(I1
I1
I1
I1
tp3161
asg973
I01
sS'planar_indices'
p3162
(dp3163
(I1
I7
I6
I5
I4
I2
tp3164
I00
s(I1
I2
I4
I5
I8
tp3165
I00
s(I1
I2
I4
I5
I6
I7
tp3166
I00
s(I1
I5
I6
I7
I8
tp3167
I00
ssb.